0001   0000             ;-------------------------------------------------
0002   0000             ;Z80 DISASSEMBLER LISTING
0003   0000             ;Label  Instruction
0004   0000             ;-------------------------------------------------
0005   0000             ;VERSION HISTORY
0006   0000             ;INTLIN1 TURNED INTO SUBROUTINE
0007   0000             ;S-AVE, L-OAD, E-DIT,R-UN,M-OVE COMMANDS ADDED
0008   0000             ;EFEX INLINE ASSEMBLER V.001 - 22.03.2017
0009   0000             ;SYSTEM VARIABLES:
0010   0000             ;3F60-3F6F  :COMMAND INPUT BUFFER			;COMINBUF
0011   0000             ;3FA0-3FA1  :COMMAND LINE LENGHT TO BE TRANSLATED	;LINELENGHT
0012   0000             ;3F80-3F90  :CODE BUFFER-----				;CODEBUF
0013   0000             ;3FA2-3FA3  :MNEMONIC TABLE FFINDED INDEX ADRESS	;TABFINDAD
0014   0000             ;3FA4-3FA5  :ASSEMBLY ADRESS				;ASADR
0015   0000             ;3FA6-3FA7  :ASSEMBLY ADRES + CODES TO WRITE MEMORY	;ASADCODE
0016   0000             ;3FB0	    :OPERAND BYTE COUNT				;OPBYTECNT
0017   0000             ;3FB2	    : # OR $ OR NULL				;DIYEZDOLAR
0018   0000             ;3F42       :# CONTENT (DATA)				;DATAINP
0019   0000             ;3F43-3F44  :$ CONTENT (ADRESS)				;ADRSINP
0020   0000             ;3FB3-3FB4  :CODE BUF. LENGHT				;CODEBUFLEN
0021   0000             
0022   0000             	STACKPOINT .EQU  0F800H	;2 BYTE ; UNCOMMENT THIS TO RUN IN ROM
0023   0000             ;
0024   0000             ;
0025   0000             ;ASSEMBLER VARIABLES FOR ROM:
0026   0000               	COMINBUF .EQU 0FF60H    ;10H CHAR LENGHT
0027   0000             	CODEBUF .EQU 0FF80H	;10H CHAR LENGHT
0028   0000             	LINELENGHT .EQU 0FFA0H	;2 BYTE
0029   0000             	TABFINDAD .EQU 0FFA2H	;2 BYTE
0030   0000             	ASADR .EQU 0FFA4H		;2 BYTE
0031   0000             	ASADCODE .EQU 0FFA6H	;2 BYTE
0032   0000             	OPBYTECNT .EQU 0FFB0H	;1 BYTE
0033   0000             	DIYEZDOLAR .EQU 0FFB2H	;1 BYTE
0034   0000             	DATAINP .EQU 0FF42H	;1 BYTE
0035   0000             	ADRSINP .EQU 0FF43H	;2 BYTE
0036   0000             	CODEBUFLEN .EQU 0FFB3H	;2 BYTE
0037   0000             
0038   0000             	KEYINBUF .EQU 0FF20H	;4 BYTE
0039   0000             	KEYINRES .EQU 0FF40H	;4 BYTE
0040   0000             	
0041   0000             ;HEX RECORD VARIABLES FOR ROM
0042   0000             	HEXLDREG .EQU 0FF4BH	;2 BYTE
0043   0000             	LOADSTADR .EQU 0FF50H	;2 BYTE
0044   0000             	SAVECHCK .EQU 0FF34H	;2 BYTE
0045   0000             	LOWNIBBLE .EQU 0FF32H	;1 BYTE
0046   0000             	HIGHNIBBLE .EQU 0FF33H	;1 BYTE
0047   0000             	
0048   0000             	
0049   0000              
0050   0000             
0051   0000             
0052   0000             
0053   0000             ;-------------------------------------------------
0054   0000             ;4 mhz clock,1834 uart clock,  8k rom, 8k ram
0055   0000             ;PORT 00:UART data, port 01 control/status
0056   0000             ;PORT 08:8255    08 input,  09 and 0A output
0057   0000             ;
0058   0000             	.org 08000H    ;CHANGE 0000 RO RUN IN ROM!
0059   8000             	
0060   8000 31 00 F8    	LD SP,STACKPOINT  ; STACK AT THE END OF  RAM
0061   8003 ED 56               IM 1
0062   8005             	;EI
0063   8005 F3          	DI
0064   8006             	
0065   8006             	
0066   8006 C3 4C 80    	JP GREET       ; TURN TO COMMENT TO RUN IN ROM
0067   8009             ;--------------------------------------------------------
0068   8009             
0069   8009             
0070   8009             
0071   8009             
0072   8009             INIT8255:
0073   8009 3E 90       	LD A,90H
0074   800B D3 0B       	OUT (00BH),A
0075   800D             INIT8251:	
0076   800D             
0077   800D 3E 40               LD A,040H            
0078   800F D3 01               OUT (001H),A  
0079   8011 00                  NOP
0080   8012 00          	NOP  
0081   8013 3E 40               LD A,040H            
0082   8015 D3 01               OUT (001H),A
0083   8017 00          	NOP
0084   8018 00          	NOP  
0085   8019                               
0086   8019 3E 40               LD A,040H            
0087   801B D3 01               OUT (001H),A  ; WORST CASE INIT
0088   801D 00          	NOP
0089   801E 00          	NOP
0090   801F             	
0091   801F             	
0092   801F             	
0093   801F 3E 40               LD A,040H            
0094   8021 D3 01               OUT (001H),A  		; RESET 8251
0095   8023 00                  NOP
0096   8024 00          	NOP
0097   8025             
0098   8025 3E 4E               LD A,04EH            
0099   8027 D3 01               OUT (001H),A      	 ; 8-N-1  CLK/1  4EH FOR /16, 4D FOR /1  (MODE )
0100   8029 00                  NOP
0101   802A 00          	NOP    
0102   802B 3E 37               LD A,037H            
0103   802D D3 01               OUT (001H),A      	 ; RESET ALL ERROR FLAGS AND ENABLE RXRDY,TXRDY (COMMAND)
0104   802F             
0105   802F C3 4C 80            JP GREET
0106   8032             ;-----------------------------------------------------------------------------------
0107   8032             ;
0108   8032             ;
0109   8032             ;	.ORG 0038H               ;CHANGEABLE INTERRUPT SUBROUTINE
0110   8032             ;	JP 2038H
0111   8032             ;	
0112   8032             ;-------------------------------------------------------------------------------------
0113   8032             	
0114   8032             ;TXD ROUTINE sends contents of A REGISTER  to serial out pin 
0115   8032             ;19200 BAUD, 8-N-1
0116   8032             
0117   8032             
0118   8032 F5          TXD:    PUSH AF
0119   8033 DB 01       LOPTX: 	IN A,(01H)
0120   8035 E6 01       	AND 001H     ;TXRDY?
0121   8037 CA 33 80    	JP Z, LOPTX
0122   803A F1                  POP AF
0123   803B D3 00       	OUT (00H),A
0124   803D C9                  RET
0125   803E             	
0126   803E             ;----------------------------------------------------------------------------------
0127   803E             ;RXD ROUTINE receives 1 bayt from serial  to A REGISTER 
0128   803E             ;19200 BAUD, 8-N-1
0129   803E             
0130   803E             RXD:    
0131   803E 3E 37       	LD A,037H
0132   8040 D3 01       	OUT (01),A ;ENABLE TX AND RX AND CLEAR ERR BITS
0133   8042             	
0134   8042 DB 01       LOPTR: 	IN A,(01H)
0135   8044 E6 02       	AND 002H     ;TXRDY?
0136   8046 CA 42 80    	JP Z, LOPTR
0137   8049 DB 00               IN A,(00H)   ;RECEIVE CHAR
0138   804B C9          	RET
0139   804C             	
0140   804C             	
0141   804C             	
0142   804C             	
0143   804C             	
0144   804C             	
0145   804C             		
0146   804C             ;----------------GREETING MESSAGE----------------------
0147   804C             
0148   804C             
0149   804C             GREET:	             ;READY SEND FILE MSG
0150   804C 21 D1 80    	LD HL,TABLE
0151   804F 06 3D       	LD B,61   ; DECIMAL IF NOT H AT THE END
0152   8051 7E          DIS:	LD A,(HL)
0153   8052 CD 32 80    	CALL TXD
0154   8055 23                  INC HL
0155   8056 10 F9       	DJNZ DIS
0156   8058             	
0157   8058             	
0158   8058 C3 6C 81    	JP MA_IN
0159   805B             	
0160   805B             ;---------------------------------------------------------	
0161   805B             
0162   805B             INPUUT: 
0163   805B 21 8D 80    	LD HL, TABLE28
0164   805E 06 0B       	LD B, 11
0165   8060 7E          DIS28:	LD A,(HL)
0166   8061 CD 32 80    	CALL TXD
0167   8064 23          	INC HL
0168   8065 10 F9       	DJNZ DIS28
0169   8067             	
0170   8067 CD 9E A0    	CALL BYTEIN2
0171   806A 2A 43 FF    	LD HL,(ADRSINP)
0172   806D 7C          	LD A,H
0173   806E CD C2 A2    	CALL HEXOUT
0174   8071 7D          	LD A,L
0175   8072 CD C2 A2    	CALL HEXOUT
0176   8075             	
0177   8075             	
0178   8075 21 98 80    	LD HL, TABLE29
0179   8078 06 0B       	LD B, 11
0180   807A 7E          DIS29:	LD A,(HL)
0181   807B CD 32 80    	CALL TXD
0182   807E 23          	INC HL
0183   807F 10 F9       	DJNZ DIS29
0184   8081             	
0185   8081 CD C4 A0    	CALL BYTEIN1
0186   8084 3A 42 FF    	LD A,(DATAINP)
0187   8087             	
0188   8087 CD C2 A2    	CALL HEXOUT
0189   808A             	
0190   808A C3 6C 81    	JP MA_IN
0191   808D             		
0192   808D             	
0193   808D             	
0194   808D             	
0195   808D             	
0196   808D             	
0197   808D             	
0198   808D             	
0199   808D             	
0200   808D             	
0201   808D             		
0202   808D             	
0203   808D             
0204   808D             TABLE28:
0205   808D 0A 0D       	.DB 0AH,0DH
0206   808F 45 4E 54 45 	.DB 'ENTER AD:'
0206   8093 52 20 41 44 
0206   8097 3A          
0207   8098             TABLE29:
0208   8098 0A 0D       	.DB 0AH,0DH
0209   809A 45 4E 54 45 	.DB 'ENTER DT:'	
0209   809E 52 20 44 54 
0209   80A2 3A          
0210   80A3             	
0211   80A3             	
0212   80A3             	 
0213   80A3             	
0214   80A3             	
0215   80A3             	
0216   80A3             	
0217   80A3             ;-------------------------------------------------------
0218   80A3             
0219   80A3             
0220   80A3             	
0221   80A3             LOAD_ED:	              ; FILE LOADED MESAGE
0222   80A3 21 43 81    	LD HL,TABLE2
0223   80A6 06 18       	LD B, 24
0224   80A8 7E          DIS2:	LD A,(HL)
0225   80A9 CD 32 80    	CALL TXD
0226   80AC 23                  INC HL
0227   80AD 10 F9       	DJNZ DIS2
0228   80AF             	
0229   80AF 3E 24       	LD A,'$'
0230   80B1 CD 32 80    	CALL TXD
0231   80B4             	
0232   80B4 2A 50 FF    	LD HL,(LOADSTADR)  ;DOWNLOADED FILE START ADRESS
0233   80B7 7C          	LD A,H
0234   80B8 CD C2 A2    	CALL HEXOUT
0235   80BB 7D          	LD A,L
0236   80BC CD C2 A2    	CALL HEXOUT
0237   80BF             
0238   80BF 3E 0A       	LD A,0AH
0239   80C1 CD 32 80    	CALL TXD
0240   80C4 3E 0D       	LD A,0DH
0241   80C6 CD 32 80    	CALL TXD
0242   80C9 3E 07       	LD A,07H
0243   80CB CD 32 80    	CALL TXD
0244   80CE             	
0245   80CE C3 6C 81    	JP MA_IN
0246   80D1             
0247   80D1             	
0248   80D1             	
0249   80D1 0C 0D       TABLE: 	.DB 0CH,0DH
0250   80D3 45 66 65 78 	.DB 'EfexMon '
0250   80D7 4D 6F 6E 20 
0251   80DB 42 79 20 4D 	.DB 'By M.PEKER '
0251   80DF 2E 50 45 4B 
0251   80E3 45 52 20    
0252   80E6 32 30 2E 33         .DB '20.3.2017'
0252   80EA 2E 32 30 31 
0252   80EE 37          
0253   80EF             
0254   80EF 0A 0D       	.DB 0AH,0DH
0255   80F1 50 72 65 73 	.DB 'Press H '
0255   80F5 73 20 48 20 
0256   80F9 66 6F 72 20 	.DB 'for help'
0256   80FD 68 65 6C 70 
0257   8101 0A 0D       	.DB 0AH,0DH
0258   8103 0A 0D               .DB 0AH,0DH 
0259   8105 52 65 61 64 	.DB 'Ready.'
0259   8109 79 2E       
0260   810B 0A 0D       	.DB 0AH,0DH
0261   810D 07          	.DB 07H
0262   810E             	
0263   810E 50 6C 65 61 TABLE5:	.DB 'Please '
0263   8112 73 65 20    
0264   8115 73 65 6E 64 	.DB 'send '
0264   8119 20          
0265   811A 48 45 58 20 	.DB 'HEX '
0266   811E 66 69 6C 65 	.DB 'file !'
0266   8122 20 21       
0267   8124 0A 0D 07    	.DB 0AH,0DH,07H
0268   8127             	
0269   8127             TABLE13:
0270   8127 0A 0D 07    	.DB 0AH,0DH,07H
0271   812A 50 72 65 73 	.DB 'Press '
0271   812E 73 20       
0272   8130 61 6E 79 20 	.DB 'any key '
0272   8134 6B 65 79 20 
0273   8138 74 6F 20 73 	.DB 'to send !'
0273   813C 65 6E 64 20 
0273   8140 21          
0274   8141 0A 0D       	.DB 0AH,0DH
0275   8143             	
0276   8143             	
0277   8143             
0278   8143             	
0279   8143 0D          TABLE2: .DB 0DH 
0280   8144 46 69 6C 65 	.DB 'File '
0280   8148 20          
0281   8149 6C 6F 61 64 	.DB 'loaded '
0281   814D 65 64 20    
0282   8150 74 6F 20            .DB 'to '
0283   8153 41 64 72 65 	.DB 'Adress: '
0283   8157 73 73 3A 20 
0284   815B             
0285   815B             TABLE25: 
0286   815B 0D          	.DB 0DH
0287   815C 4C 6F 61 64 	.DB 'Loading'
0287   8160 69 6E 67    
0288   8163 2E 2E 2E    	.DB '...'
0289   8166                     
0290   8166             		
0291   8166             	
0292   8166             	
0293   8166 0A 0D       TABLE6:	.DB 0AH,0DH
0294   8168 43 3A 5C 3E 	.DB 'C:\>'
0295   816C             ;------------------------MAIN PROGRAM----------------------
0296   816C             
0297   816C             
0298   816C CD B6 81    MA_IN  	CALL PROMPT
0299   816F CD 3E 80    	CALL RXD
0300   8172 FE 53       	CP 'S'
0301   8174 CC BC 9F    	CALL Z, SAVEX		;SAVE IHEX FILE
0302   8177 FE 4C       	CP 'L'
0303   8179 CA D4 A1    	JP Z,LOADERZ		;LOAD IHEX FILE
0304   817C FE 41       	CP 'A'
0305   817E CA 70 85    	JP Z,ASSEMBLE		;ASSEMBLER
0306   8181 FE 47       	CP 'G'
0307   8183 CA 75 A1    	JP Z,RUN_ADR		;GO TO ADRESS
0308   8186 FE 45       	CP 'E'
0309   8188 CA EA A0    	JP Z,EDIT		;EDIT ADRESS
0310   818B FE 4D       	CP 'M'
0311   818D CA 4E 9E    	JP Z, MOVE		;MOVE MEMORY BLOCKS
0312   8190 FE 48       	CP 'H'
0313   8192 CA C3 81    	JP Z, HELP		;HELP SUBROUTINE
0314   8195 FE 57       	CP 'W'
0315   8197 CA 4C 80    	JP Z, GREET 		;RESTART
0316   819A FE 55       	CP 'U'
0317   819C CA EC 82    	JP Z, USEFUL		;USEFUL ROUTINES
0318   819F FE 44       	CP 'D'
0319   81A1 CA BE 86    	JP Z, DISASSEMBLER
0320   81A4             	
0321   81A4 FE 58       	CP 'X'
0322   81A6 CA D3 84    	JP Z, HEXDUMP		;DUMP MEMORY CONTENT
0323   81A9             	
0324   81A9 3E 0A       	LD A, 0AH
0325   81AB CD 32 80    	CALL TXD
0326   81AE 3E 0D       	LD A, 0DH
0327   81B0 CD 32 80    	CALL TXD
0328   81B3 C3 6C 81    	JP MA_IN
0329   81B6             	
0330   81B6 21 66 81    PROMPT:	LD HL,TABLE6
0331   81B9 06 06       	LD B,6   ; DECIMAL IF NOT H AT THE END
0332   81BB 7E          DIS6:	LD A,(HL)
0333   81BC CD 32 80    	CALL TXD
0334   81BF 23                  INC HL
0335   81C0 10 F9       	DJNZ DIS6
0336   81C2 C9          	RET
0337   81C3             
0338   81C3             
0339   81C3             
0340   81C3             
0341   81C3             
0342   81C3             ;----------------HELP-------------------------
0343   81C3             HELP:	             ;HELP MSG
0344   81C3 21 D6 81    	LD HL,TABLE21
0345   81C6 01 16 01    	LD BC,278   ; DECIMAL IF NOT H AT THE END
0346   81C9 7E          DIS21:	LD A,(HL)
0347   81CA CD 32 80    	CALL TXD
0348   81CD 23                  INC HL
0349   81CE 0B          	DEC BC
0350   81CF 78          	LD A,B
0351   81D0 B1          	OR C
0352   81D1 20 F6       	JR NZ,DIS21
0353   81D3             	
0354   81D3             	
0355   81D3 C3 6C 81    	JP MA_IN
0356   81D6             	
0357   81D6             TABLE21:
0358   81D6 0A 0D       	.DB 0AH,0DH
0359   81D8 52 41 4D 20         .DB 'RAM start '
0359   81DC 73 74 61 72 
0359   81E0 74 20       
0360   81E2 61 64 72 65 	.DB 'adress '
0360   81E6 73 73 20    
0361   81E9 38 30 30 30 	.DB '8000H'
0361   81ED 48          
0362   81EE 0A 0D       	.DB 0AH,0DH
0363   81F0 0A 0D       	.DB 0AH,0DH
0364   81F2 43 6F 6D 6D 	.DB 'Commands:'
0364   81F6 61 6E 64 73 
0364   81FA 3A          
0365   81FB 0A 0D       	.DB 0AH,0DH
0366   81FD 0A 0D       	.DB 0AH,0DH
0367   81FF             	
0368   81FF             	
0369   81FF 41 2D       	.DB 'A-'
0370   8201 41 73 73 65 	.DB 'Assembler '
0370   8205 6D 62 6C 65 
0370   8209 72 20       
0371   820B 0A 0D       	.DB 0AH,0DH
0372   820D             	
0373   820D             	
0374   820D 44 2D       	.DB 'D-'
0375   820F 44 69 73 61 	.DB 'Disassembler '
0375   8213 73 73 65 6D 
0375   8217 62 6C 65 72 
0375   821B 20          
0376   821C 0A 0D       	.DB 0AH,0DH
0377   821E             	
0378   821E             	
0379   821E 4C 2D 4C 6F 	.DB 'L-Load '
0379   8222 61 64 20    
0380   8225 69 48 65 78 	.DB 'iHex file '
0380   8229 20 66 69 6C 
0380   822D 65 20       
0381   822F 0A 0D       	.DB 0AH,0DH
0382   8231             	
0383   8231             
0384   8231 53 2D 53 61 	.DB 'S-Save '
0384   8235 76 65 20    
0385   8238 69 48 65 78 	.DB 'iHex file '
0385   823C 20 66 69 6C 
0385   8240 65 20       
0386   8242 0A 0D       	.DB 0AH,0DH
0387   8244             	
0388   8244             
0389   8244 45 2D 45 64 	.DB 'E-Edit '
0389   8248 69 74 20    
0390   824B 70 72 6F 67 	.DB 'program '
0390   824F 72 61 6D 20 
0391   8253 6D 65 6D 6F 	.DB 'memory'
0391   8257 72 79       
0392   8259 0A 0D       	.DB 0AH,0DH
0393   825B             	
0394   825B             	
0395   825B 57 2D 57 61 	.DB 'W-Warm '
0395   825F 72 6D 20    
0396   8262 73 74 61 72 	.DB 'start'
0396   8266 74          
0397   8267 0A 0D       	.DB 0AH,0DH
0398   8269             	
0399   8269             	
0400   8269 4D 2D 4D 6F 	.DB 'M-Move '
0400   826D 76 65 20    
0401   8270 6D 65 6D 6F 	.DB 'memory '
0401   8274 72 79 20    
0402   8277 62 6C 6F 63 	.DB 'blocks '
0402   827B 6B 73 20    
0403   827E 0A 0D       	.DB 0AH,0DH
0404   8280             	
0405   8280             	
0406   8280 58 2D 48 65 	.DB 'X-Hexdump '
0406   8284 78 64 75 6D 
0406   8288 70 20       
0407   828A 6D 65 6D 6F 	.DB 'memory '
0407   828E 72 79 20    
0408   8291 63 6F 6E 74 	.DB 'content '
0408   8295 65 6E 74 20 
0409   8299 0A 0D       	.DB 0AH,0DH
0410   829B             	
0411   829B             	
0412   829B             		
0413   829B 47 2D 47 6F 	.DB 'G-Go to '
0413   829F 20 74 6F 20 
0414   82A3 61 64 72 65 	.DB 'adress' 
0414   82A7 73 73       
0415   82A9 0A 0D       	.DB 0AH,0DH
0416   82AB             	
0417   82AB 46 2D 46 69 	.DB 'F-Fill '
0417   82AF 6C 6C 20    
0418   82B2 6D 65 6D 6F 	.DB 'memory' 
0418   82B6 72 79       
0419   82B8 0A 0D       	.DB 0AH,0DH
0420   82BA             	
0421   82BA 52 2D 53 68 	.DB 'R-Show '
0421   82BE 6F 77 20    
0422   82C1 52 65 67 69 	.DB 'Register '
0422   82C5 73 74 65 72 
0422   82C9 20          
0423   82CA 63 6F 6E 74 	.DB 'contents '
0423   82CE 65 6E 74 73 
0423   82D2 20          
0424   82D3             	 
0425   82D3 0A 0D       	.DB 0AH,0DH
0426   82D5             	
0427   82D5 55 2D 55 73 	.DB 'U-Useful '
0427   82D9 65 66 75 6C 
0427   82DD 20          
0428   82DE 52 4F 4D 20 	.DB 'ROM adresses' 
0428   82E2 61 64 72 65 
0428   82E6 73 73 65 73 
0429   82EA 0A 0D       	.DB 0AH,0DH
0430   82EC             	
0431   82EC             ;-------------------USEFUL ROUTINES-----------
0432   82EC             USEFUL:	             ;HELP MSG
0433   82EC             
0434   82EC             
0435   82EC 3E 0A       	LD A,0AH
0436   82EE CD 32 80    	CALL TXD
0437   82F1 3E 0D       	LD A,0DH
0438   82F3 CD 32 80    	CALL TXD
0439   82F6             	
0440   82F6             	
0441   82F6 21 E7 83    	LD HL,TABLEH9
0442   82F9 06 17       	LD B,23
0443   82FB CD D1 83    	CALL PRINT
0444   82FE             	
0445   82FE             		
0446   82FE 21 91 84    	LD HL,TABLE22
0447   8301 06 42       	LD B,66   ; DECIMAL IF NOT H AT THE END
0448   8303 CD D1 83    	CALL PRINT
0449   8306             	
0450   8306             	
0451   8306             	;JP MA_IN
0452   8306             	
0453   8306             
0454   8306             
0455   8306 21 32 80    HELP1:	LD HL,TXD
0456   8309 7C          	LD A,H
0457   830A CD C2 A2    	CALL HEXOUT
0458   830D 7D          	LD A,L
0459   830E CD C2 A2    	CALL HEXOUT
0460   8311             	
0461   8311 3E 0A       	LD A,0AH
0462   8313 CD 32 80    	CALL TXD
0463   8316 3E 0D       	LD A,0DH
0464   8318 CD 32 80    	CALL TXD
0465   831B             		
0466   831B             
0467   831B             
0468   831B 21 83 84    	LD HL,TABLEH1
0469   831E 06 0E       	LD B,14
0470   8320 CD D1 83    	CALL PRINT
0471   8323             			
0472   8323             
0473   8323             	
0474   8323 21 3E 80    	LD HL,RXD
0475   8326 7C          	LD A,H
0476   8327 CD C2 A2    	CALL HEXOUT
0477   832A 7D          	LD A,L
0478   832B CD C2 A2    	CALL HEXOUT
0479   832E             	
0480   832E 3E 0A       	LD A,0AH
0481   8330 CD 32 80    	CALL TXD
0482   8333 3E 0D       	LD A,0DH
0483   8335 CD 32 80    	CALL TXD
0484   8338             		
0485   8338 21 75 84    	LD HL,TABLEH2
0486   833B 06 0E       	LD B,14	
0487   833D             	
0488   833D CD D1 83    	CALL PRINT
0489   8340             
0490   8340             
0491   8340             
0492   8340             	
0493   8340             	
0494   8340 21 9E A0    	LD HL,BYTEIN2
0495   8343 7C          	LD A,H
0496   8344 CD C2 A2    	CALL HEXOUT
0497   8347 7D          	LD A,L
0498   8348 CD C2 A2    	CALL HEXOUT
0499   834B             	
0500   834B 21 59 84    	LD HL,TABLEH3
0501   834E 06 1C       	LD B,28
0502   8350 CD D1 83    	CALL PRINT
0503   8353             	
0504   8353 21 4B 84    	LD HL,TABLEH4
0505   8356 06 0E       	LD B,14
0506   8358 CD D1 83    	CALL PRINT
0507   835B             	
0508   835B 21 C4 A0    	LD HL,BYTEIN1
0509   835E 7C          	LD A,H
0510   835F CD C2 A2    	CALL HEXOUT
0511   8362 7D          	LD A,L
0512   8363 CD C2 A2    	CALL HEXOUT
0513   8366             
0514   8366 21 35 84    	LD HL,TABLEH5
0515   8369 06 16       	LD B,22
0516   836B CD D1 83    	CALL PRINT
0517   836E             	
0518   836E 21 27 84    	LD HL,TABLEH6
0519   8371 06 0E       	LD B,14
0520   8373 CD D1 83    	CALL PRINT
0521   8376             	
0522   8376 21 C2 A2    	LD HL,HEXOUT
0523   8379 7C          	LD A,H
0524   837A CD C2 A2    	CALL HEXOUT
0525   837D 7D          	LD A,L
0526   837E CD C2 A2    	CALL HEXOUT
0527   8381             	
0528   8381 21 0C 84    	LD HL,TABLEH7
0529   8384 06 1B       	LD B,27
0530   8386 CD D1 83    	CALL PRINT	
0531   8389             	
0532   8389 21 FE 83    	LD HL,TABLEH8
0533   838C 06 0E       	LD B,14
0534   838E CD D1 83    	CALL PRINT
0535   8391             	
0536   8391 21 6C 81    	LD HL,MA_IN
0537   8394 7C          	LD A,H
0538   8395 CD C2 A2    	CALL HEXOUT
0539   8398 7D          	LD A,L
0540   8399 CD C2 A2    	CALL HEXOUT
0541   839C             	
0542   839C 3E 0A       	LD A,0AH
0543   839E CD 32 80    	CALL TXD
0544   83A1 3E 0D       	LD A,0DH
0545   83A3 CD 32 80    	CALL TXD
0546   83A6             	
0547   83A6             	
0548   83A6             	
0549   83A6 21 D9 83    	LD HL,TABLEH10
0550   83A9 06 0E       	LD B,14
0551   83AB CD D1 83    	CALL PRINT
0552   83AE             	
0553   83AE 21 C6 83    	LD HL,DE_LAY
0554   83B1 7C          	LD A,H
0555   83B2 CD C2 A2    	CALL HEXOUT
0556   83B5 7D          	LD A,L
0557   83B6 CD C2 A2    	CALL HEXOUT
0558   83B9             
0559   83B9 3E 0A       	LD A,0AH
0560   83BB CD 32 80    	CALL TXD
0561   83BE 3E 0D       	LD A,0DH
0562   83C0 CD 32 80    	CALL TXD
0563   83C3             	
0564   83C3             	
0565   83C3 C3 6C 81    	JP MA_IN
0566   83C6             	
0567   83C6             DE_LAY:
0568   83C6             	
0569   83C6 D5          	PUSH DE
0570   83C7 11 00 80    	LD DE,08000H
0571   83CA             DISDELAY:
0572   83CA 1B          	DEC DE
0573   83CB 7A          	LD A,D
0574   83CC B3          	OR E
0575   83CD 20 FB       	JR NZ,DISDELAY
0576   83CF D1          	POP DE
0577   83D0 C9          	RET
0578   83D1             		
0579   83D1             	
0580   83D1             
0581   83D1             
0582   83D1             	
0583   83D1 7E          PRINT:	LD A,(HL)
0584   83D2 CD 32 80    	CALL TXD
0585   83D5 23          	INC HL
0586   83D6 10 F9       	DJNZ PRINT
0587   83D8 C9          	RET
0588   83D9             	
0589   83D9             TABLEH10:	
0590   83D9 44 45 4C 41 	.DB 'DELAY  (R):  $'
0590   83DD 59 20 20 28 
0590   83E1 52 29 3A 20 
0590   83E5 20 24       
0591   83E7             	
0592   83E7             TABLEH9:
0593   83E7 55 73 65 66 	.DB 'Useful ROM '
0593   83EB 75 6C 20 52 
0593   83EF 4F 4D 20    
0594   83F2 72 6F 75 74 	.DB 'routines :'
0594   83F6 69 6E 65 73 
0594   83FA 20 3A       
0595   83FC 0A 0D       	.DB 0AH,0DH
0596   83FE             	
0597   83FE             TABLEH8:	
0598   83FE 50 52 4F 4D 	.DB 'PROMPT (R):  $'
0598   8402 50 54 20 28 
0598   8406 52 29 3A 20 
0598   840A 20 24       
0599   840C             		
0600   840C             TABLEH7:
0601   840C 20 53 65 6E 	.DB ' Sends regis'
0601   8410 64 73 20 72 
0601   8414 65 67 69 73 
0602   8418 74 65 72 20 	.DB 'ter A '
0602   841C 41 20       
0603   841E 74 6F 20 55 	.DB 'to UART'
0603   8422 41 52 54    
0604   8425 0A 0D       	.DB 0AH,0DH
0605   8427             	
0606   8427             TABLEH6:
0607   8427 48 45 58 4F 	.DB 'HEXOUT (S):  $'
0607   842B 55 54 20 28 
0607   842F 53 29 3A 20 
0607   8433 20 24       
0608   8435             	
0609   8435             	
0610   8435             TABLEH5:
0611   8435 20 31 20 42 	.DB ' 1 Byte input'
0611   8439 79 74 65 20 
0611   843D 69 6E 70 75 
0611   8441 74          
0612   8442 74 6F 20 46 	.DB 'to FF42'
0612   8446 46 34 32    
0613   8449 0A 0D       	.DB 0AH,0DH
0614   844B             	
0615   844B             	
0616   844B             TABLEH4:	
0617   844B 42 59 54 45 	.DB 'BYTEIN1(S):  $'
0617   844F 49 4E 31 28 
0617   8453 53 29 3A 20 
0617   8457 20 24       
0618   8459             
0619   8459             TABLEH3:	
0620   8459             	
0621   8459 20 32 20 42 	.DB ' 2 Byte input '
0621   845D 79 74 65 20 
0621   8461 69 6E 70 75 
0621   8465 74 20       
0622   8467 74 6F 20 46 	.DB 'to FF43-FF44'
0622   846B 46 34 33 2D 
0622   846F 46 46 34 34 
0623   8473 0A 0D       	.DB 0AH,0DH
0624   8475             
0625   8475             TABLEH2:            ;
0626   8475 42 59 54 45 	.DB 'BYTEIN2(S):  $'	
0626   8479 49 4E 32 28 
0626   847D 53 29 3A 20 
0626   8481 20 24       
0627   8483             	
0628   8483             TABLEH1:
0629   8483 52 58 44 20 	.DB 'RXD    (S):  $'	
0629   8487 20 20 20 28 
0629   848B 53 29 3A 20 
0629   848F 20 24       
0630   8491             	
0631   8491             TABLE22:
0632   8491 0A 0D       	.DB 0AH,0DH
0633   8493 55 41 52 54         .DB 'UART '
0633   8497 20          
0634   8498 61 64 72 65 	.DB 'adress :'
0634   849C 73 73 20 3A 
0635   84A0 49 4F 20 50 	.DB 'IO PORT 00'
0635   84A4 4F 52 54 20 
0635   84A8 30 30       
0636   84AA 0A 0D       	.DB 0AH,0DH
0637   84AC             	
0638   84AC 38 32 35 35 	.DB '8255 '
0638   84B0 20          
0639   84B1 61 64 72 65 	.DB 'adress :'
0639   84B5 73 73 20 3A 
0640   84B9 49 4F 20 50 	.DB 'IO PORT 08'
0640   84BD 4F 52 54 20 
0640   84C1 30 38       
0641   84C3 0A 0D       	.DB 0AH,0DH
0642   84C5             	
0643   84C5 54 58 44 20 	.DB 'TXD    (S):  $'
0643   84C9 20 20 20 28 
0643   84CD 53 29 3A 20 
0643   84D1 20 24       
0644   84D3             	
0645   84D3             	
0646   84D3             	
0647   84D3             
0648   84D3             	
0649   84D3             
0650   84D3             	
0651   84D3             	
0652   84D3             	
0653   84D3             	
0654   84D3             
0655   84D3             ;--------------FILL--------------------------
0656   84D3             
0657   84D3             
0658   84D3             
0659   84D3             
0660   84D3             ;---------------REGISTERS----------------------
0661   84D3             
0662   84D3             
0663   84D3             
0664   84D3             
0665   84D3             
0666   84D3             
0667   84D3             
0668   84D3             
0669   84D3             
0670   84D3             ;-------------HEXDUMP--------------------------
0671   84D3             
0672   84D3             HEXDUMP:
0673   84D3 3E 58       	LD A,'X'
0674   84D5 CD 32 80    	CALL TXD
0675   84D8 3E 2D       	LD A,'-'
0676   84DA CD 32 80    	CALL TXD 
0677   84DD 3E 24       	LD A, '$'
0678   84DF CD 32 80    	CALL TXD
0679   84E2 3E 3F       	LD A, '?'
0680   84E4 CD 32 80    	CALL TXD
0681   84E7 3E 08       	LD A, 08H
0682   84E9 CD 32 80    	CALL TXD ; DISPLAY 4 CHAR INPUT PROMPT
0683   84EC             	
0684   84EC             	
0685   84EC             	
0686   84EC 21 20 FF            LD HL, KEYINBUF
0687   84EF 06 04       	LD B,4
0688   84F1 CD 3E 80    DISX1:	CALL RXD
0689   84F4 FE 1B       	CP 1BH
0690   84F6 CA 6C 81    	JP Z, MA_IN
0691   84F9 77          	LD (HL), A
0692   84FA 23          	INC HL
0693   84FB CD 32 80    	CALL TXD
0694   84FE 10 F1       	DJNZ DISX1	;INPUT 4 CHAR
0695   8500 CD A9 A1    	CALL INTLINR	;EXTRACT ADRESS
0696   8503             	
0697   8503             	
0698   8503 2A 40 FF    	LD HL, (KEYINRES)
0699   8506 11 0F 00    DONGUY:	LD DE,000FH		;SHOW 16 LINES
0700   8509             DONGUX:	
0701   8509 3E 0D       	LD A,0DH		;ENTER
0702   850B CD 32 80    	CALL TXD 
0703   850E 3E 0A       	LD A,0AH
0704   8510 CD 32 80    	CALL TXD
0705   8513             
0706   8513 7C          	LD A,H 			;PRINT ADRESS AND :
0707   8514 CD C2 A2    	CALL HEXOUT
0708   8517 7D          	LD A,L
0709   8518 CD C2 A2    	CALL HEXOUT
0710   851B 3E 3A       	LD A,':'
0711   851D CD 32 80    	CALL TXD
0712   8520 3E 20       	LD A,' '
0713   8522 CD 32 80    	CALL TXD 
0714   8525 3E 20       	LD A,' '
0715   8527 CD 32 80    	CALL TXD 
0716   852A             	
0717   852A 06 08       	LD B,8		;FIRST 8 BYTE
0718   852C 7E          DUMBP:	LD A,(HL)
0719   852D CD C2 A2    	CALL HEXOUT
0720   8530 3E 20       	LD A,' '
0721   8532 CD 32 80    	CALL TXD 
0722   8535 23          	INC HL
0723   8536 10 F4       	DJNZ DUMBP
0724   8538             	
0725   8538 3E 20       	LD A,' '
0726   853A CD 32 80    	CALL TXD
0727   853D 3E 20       	LD A,' '
0728   853F CD 32 80    	CALL TXD
0729   8542 3E 20       	LD A,' '
0730   8544 CD 32 80    	CALL TXD
0731   8547             		
0732   8547 06 08       	LD B,8		;SECOND 8 BYTE
0733   8549 7E          DUMBP2:	LD A,(HL)
0734   854A CD C2 A2    	CALL HEXOUT
0735   854D 3E 20       	LD A,' '
0736   854F CD 32 80    	CALL TXD 
0737   8552 23          	INC HL
0738   8553 10 F4       	DJNZ DUMBP2
0739   8555             
0740   8555 1B          	DEC DE
0741   8556 7A          	LD A,D
0742   8557 B3          	OR E
0743   8558 C2 09 85    	JP NZ, DONGUX
0744   855B             	
0745   855B CD 3E 80    CIKIS:	CALL RXD
0746   855E FE 1B       	CP 01BH
0747   8560 CA 6C 81    	JP Z,MA_IN		;ESC : EXIT TO MAIN MENU
0748   8563 FE 0D       	CP 0DH
0749   8565 CA 06 85    	JP Z,DONGUY		;ENTER OR SPACE CONT. TO LISTING
0750   8568 FE 20       	CP 020H
0751   856A CA 06 85    	JP Z,DONGUY
0752   856D C3 5B 85    	JP CIKIS
0753   8570             	
0754   8570             
0755   8570             
0756   8570             ;----------------ASSEMBLER---------------------
0757   8570             
0758   8570             
0759   8570             ;INPUT ASSEMBLER ADRESS-------
0760   8570             
0761   8570             ASSEMBLE:
0762   8570 3E 00       	LD A,0		
0763   8572 32 B0 FF    	LD (OPBYTECNT),A	;OPERAND BYTE COUNT RESET
0764   8575 3E 00       	LD A,0
0765   8577 32 B2 FF    	LD (DIYEZDOLAR),A	;#,$,NULL RESET AS NULL
0766   857A             
0767   857A             ASS_ADR:
0768   857A 3E 41       	LD A,'A'       ;ASSEMBLY START ADRESS
0769   857C CD 32 80    	CALL TXD
0770   857F 3E 2D       	LD A,'-'
0771   8581 CD 32 80    	CALL TXD 
0772   8584 3E 24       	LD A, '$'
0773   8586 CD 32 80    	CALL TXD
0774   8589 3E 3F       	LD A, '?'
0775   858B CD 32 80    	CALL TXD
0776   858E 3E 08       	LD A, 08H
0777   8590 CD 32 80    	CALL TXD ; DISPLAY 4 CHAR INPUT PROMPT
0778   8593             	
0779   8593 21 20 FF            LD HL, KEYINBUF
0780   8596 06 04       	LD B,4
0781   8598 CD 3E 80    DIS40:	CALL RXD
0782   859B FE 1B       	CP 1BH
0783   859D CA 6C 81    	JP Z, MA_IN
0784   85A0 77          	LD (HL), A
0785   85A1 23          	INC HL
0786   85A2 CD 32 80    	CALL TXD
0787   85A5 10 F1       	DJNZ DIS40
0788   85A7             	
0789   85A7 CD A9 A1            CALL INTLINR
0790   85AA             	
0791   85AA             	
0792   85AA 2A 40 FF    	LD HL, (KEYINRES)
0793   85AD 22 A4 FF    	LD (ASADR),HL
0794   85B0             	
0795   85B0             	
0796   85B0             	;JP INTERPRET
0797   85B0             
0798   85B0 21 D0 9D    	LD HL,TABLE_AS ;ASSEMBLER MESSAGE
0799   85B3 06 0E       	LD B,14   
0800   85B5 7E          DIS33:	LD A,(HL)
0801   85B6 CD 32 80    	CALL TXD
0802   85B9 23                  INC HL
0803   85BA 10 F9       	DJNZ DIS33
0804   85BC             	
0805   85BC             	
0806   85BC 3E 0D       	LD A, 0DH
0807   85BE CD 32 80    	CALL TXD
0808   85C1 3E 0A       	LD A, 0AH
0809   85C3 CD 32 80    	CALL TXD
0810   85C6             ;---------------------------ASSEMBLER DONGU------------	
0811   85C6             	
0812   85C6 3E 0A       AS_DON:	LD A, 0AH
0813   85C8 CD 32 80    	CALL TXD
0814   85CB             AS_DON2:
0815   85CB 3E 0D       	LD A, 0DH
0816   85CD CD 32 80    	CALL TXD
0817   85D0             	
0818   85D0 2A A4 FF    	LD HL,(ASADR)	;ASSEMBLY ADRESS
0819   85D3 7C          	LD A,H
0820   85D4 CD C2 A2    	CALL HEXOUT
0821   85D7 7D          	LD A,L
0822   85D8 CD C2 A2    	CALL HEXOUT
0823   85DB             	
0824   85DB 3E 20       	LD A, ' '
0825   85DD CD 32 80    	CALL TXD
0826   85E0 3E 20       	LD A, ' '
0827   85E2 CD 32 80    	CALL TXD
0828   85E5             	
0829   85E5             	
0830   85E5             
0831   85E5             
0832   85E5             	
0833   85E5 01 01 00    	LD BC,0001H
0834   85E8 ED 43 A0 FF 	LD (LINELENGHT),BC;     ;CLEAR LENGHT REG
0835   85EC             
0836   85EC CD A5 9D    	CALL CLRBUF         ;CLEAR INPUT BUFFERS
0837   85EF 21 60 FF    	LD HL,COMINBUF
0838   85F2 06 0F       	LD B,0FH
0839   85F4 CD 3E 80    DIS32:	CALL RXD
0840   85F7 FE 0D       	CP 0DH
0841   85F9 CA 12 86    	JP Z,BITTI         ;ENTER BASILDIYSA BITIR
0842   85FC FE 1B       	CP 1BH
0843   85FE CA 6C 81    	JP Z,MA_IN         ;ESC BASILDIYSA CIK
0844   8601             	;AND 0DFH       ;%11011111       ; lower to uppercase
0845   8601             	
0846   8601 CD 32 80    	CALL TXD         ;PRINT CHAR
0847   8604             
0848   8604 FE 23       	CP '#'
0849   8606 CC 97 9D    	CALL Z,BYTEINP1
0850   8609 FE 24       	CP '$'
0851   860B CC 9E 9D    	CALL Z,BYTEINP2
0852   860E 77          	LD (HL),A
0853   860F 23          	INC HL
0854   8610 10 E2       	DJNZ DIS32  ;GET COMMAND TO BUFFER 16 CHAR  LENGHT, TILL CR
0855   8612             ;       ---------------------------	
0856   8612 3E 0F       BITTI: 	LD A,0FH         
0857   8614 90          	SUB B
0858   8615 32 A0 FF    	LD (LINELENGHT), A   ;SAVE INPUT REGISTER LENGHT TO BC
0859   8618             		        ;TO LINELENGHT-3FA1 AND EXIT FROM INPUT
0860   8618             			;ALL CODE TAKEN INTO INPUT REG., LENGHT IN LINELENGHT-3FA1H
0861   8618 3E 00       	LD A,00H
0862   861A 32 A1 FF    	LD (LINELENGHT + 1), A    
0863   861D             		
0864   861D             		
0865   861D C3 20 86    	JP INTERPRET	;JUMT TO INTERPRETER
0866   8620             	
0867   8620             	
0868   8620             
0869   8620             
0870   8620             
0871   8620             
0872   8620             	
0873   8620             ;Line input finished  here. 
0874   8620             ;------------------------------------------------------------------------
0875   8620             ;            	                                                         |
0876   8620             ;	RESULT: Mnemonic string in COMINBUF (INPUT BUFFER)               |
0877   8620             ;         Mnemonic lenght in LINELENGHT  (for use Register BC)           |
0878   8620             ;        if operand=$: result in ADRSINP-3F44h                           |
0879   8620             ;	 if operand=#: result in DATAINP                                 |
0880   8620             ;		                                                         |
0881   8620             ;-------------------------------------------------------------------------	
0882   8620             	
0883   8620             		 
0884   8620             ;---------------INTERPRETER STARTS HERE--------------------------
0885   8620             ;Interpreter translates input buffer mnemonics to machine code
0886   8620             ;
0887   8620             ;
0888   8620             ;
0889   8620             ;EFEX INLINE ASSEMBLER V.001 - 22.03.2017
0890   8620             ;SYSTEM VARIABLES:
0891   8620             ;3F60-3F6F  :COMMAND INPUT BUFFER
0892   8620             ;3FA0-3FA1  :COMMAND LINE LENGHT TO BE TRANSLATED
0893   8620             ;3F80-3F90  :CODE BUFFER----
0894   8620             ;3FA2-3FA3  :MNEMONIC TABLE FFINDED INDEX ADRESS
0895   8620             ;3FA4-3FA5  :ASSEMBLY ADRESS
0896   8620             ;3FA6-3FA7  :ASSEMBLY ADRES + CODES TO WRITE MEMORY
0897   8620             ;3FB0	    :OPERAND BYTE COUNT
0898   8620             ;3FB2	    : # OR $ OR NULL
0899   8620             ;3F42       :# CONTENT (DATA)
0900   8620             ;3F43-3F44  :$ CONTENT (ADRESS)
0901   8620             ;3FB3-3FB4  :CODE BUF. LENGHT	
0902   8620             
0903   8620             INTERPRET:		;ASSEMBLER INTERPRETER
0904   8620 CD DE 9D    	CALL FINDCOM	;FIND MNEMONIC FROM TABLE
0905   8623             	
0906   8623 3E 20       	LD A,' '
0907   8625 CD 32 80    	CALL TXD
0908   8628 3E 20       	LD A,' '
0909   862A CD 32 80    	CALL TXD
0910   862D             	
0911   862D             	
0912   862D             	
0913   862D 11 80 FF    	LD DE,CODEBUF	;CODE BUFFER
0914   8630 2A A2 FF    	LD HL,(TABFINDAD) 	;MNEMONIC ADRESS FROM TABLE (HOLDS BYTE COUNT AT THE MOMENT)
0915   8633             			
0916   8633             		
0917   8633 7E          	LD A,(HL)	;OPERAND COUNT
0918   8634 47          	LD B,A
0919   8635 0E 00       	LD C,0 	; CODE COUNT RESET
0920   8637             
0921   8637             	
0922   8637 23          	INC HL		;HL AT FIRST OPERAND ADRESS(COMMAND)
0923   8638 7E          DISIN:	LD A,(HL) 	;TAKE COMMAND 
0924   8639 12          	LD (DE),A	;WRITE TO CODE BUFFER
0925   863A 23          	INC HL
0926   863B 13          	INC DE
0927   863C 0C          	INC C
0928   863D 10 F9       	DJNZ DISIN
0929   863F             	
0930   863F 3A B2 FF    	LD A,(DIYEZDOLAR)
0931   8642 FE 23       	CP '#'
0932   8644 CC AA 86    	CALL Z, DIYEZ1
0933   8647 FE 24       	CP '$'
0934   8649 CC B1 86    	CALL Z, DOLLAR1
0935   864C             	
0936   864C 79          	LD A,C
0937   864D 32 B3 FF    	LD (CODEBUFLEN),A    ;CODE LENGHT
0938   8650             	
0939   8650             
0940   8650 3A B2 FF    	LD A,(DIYEZDOLAR)  	;JUST OUTPUT COMPOSER TO GOOD VIEW
0941   8653 FE 00       	CP 0
0942   8655 C2 67 86    	JP NZ, UZUN
0943   8658 3E 20       	LD A,' '
0944   865A CD 32 80    	CALL TXD	
0945   865D 3E 20       	LD A,' '
0946   865F CD 32 80    	CALL TXD
0947   8662 3E 09       	LD A,009H
0948   8664 CD 32 80    	CALL TXD
0949   8667             
0950   8667 3E 20       UZUN:	LD A,' '
0951   8669 CD 32 80    	CALL TXD
0952   866C 3E 09       	LD A,009H
0953   866E CD 32 80    	CALL TXD
0954   8671             
0955   8671             	
0956   8671             		
0957   8671             	
0958   8671             	
0959   8671             	
0960   8671             	
0961   8671 21 80 FF    	LD HL,CODEBUF
0962   8674 41          	LD B,C
0963   8675 3E 20       	LD A,' '
0964   8677 CD 32 80    	CALL TXD 
0965   867A 3E 3A       	LD A,':'
0966   867C CD 32 80    	CALL TXD 
0967   867F             	
0968   867F 7E          ISTEBU:	LD A,(HL)
0969   8680 CD C2 A2    	CALL HEXOUT
0970   8683 3E 20       	LD A,' '
0971   8685 CD 32 80    	CALL TXD
0972   8688 23          	INC HL
0973   8689 10 F4       	DJNZ ISTEBU
0974   868B             	
0975   868B             	
0976   868B             	
0977   868B             ;------LINE ASSEMLY COMPLETED HERE 
0978   868B             
0979   868B 2A A4 FF    	LD HL,(ASADR)    
0980   868E 22 A6 FF    	LD (ASADCODE),HL	
0981   8691 06 00       	LD B,0
0982   8693 09          	ADD HL,BC
0983   8694 22 A4 FF    	LD (ASADR),HL
0984   8697             	
0985   8697             	
0986   8697             	
0987   8697             	
0988   8697 3A B3 FF    YAZIM:	LD A,(CODEBUFLEN)   	;;WRITE ASSEMBLY LINE CODES FROM CODE BUFFER TO MEMORY
0989   869A 47          	LD B,A		;CODE LENGHT
0990   869B             
0991   869B             	
0992   869B 2A A6 FF    	LD HL,(ASADCODE)  ; ASSEMBLY LINE START ADRESS
0993   869E 11 80 FF    	LD DE,CODEBUF	;CODE BUFFER START ADRESS
0994   86A1 1A          DISYAZ:	LD A,(DE)
0995   86A2 77          	LD (HL),A
0996   86A3 23          	INC HL
0997   86A4 13          	INC DE
0998   86A5 10 FA       	DJNZ DISYAZ    ;WRITE ASSEMBLY LINE CODES TO MEMORY
0999   86A7             	
1000   86A7             	
1001   86A7             	
1002   86A7             	
1003   86A7 C3 C6 85    	JP AS_DON	;GO TO NEXT ASSEMBLY LINE
1004   86AA             	;JP MA_IN
1005   86AA             	
1006   86AA             DIYEZ1: 	
1007   86AA 3A 42 FF    	LD A,(DATAINP)	;CHANGE # CHAR TO OPERAND BYTE
1008   86AD 12          	LD (DE),A
1009   86AE 13          	INC DE
1010   86AF 0C          	INC C
1011   86B0 C9          	RET
1012   86B1             	
1013   86B1             DOLLAR1:
1014   86B1             	
1015   86B1 3A 43 FF     	LD A,(ADRSINP)   ;CHANGE $ CHAR TO DOUBLE OPERAND BYTE
1016   86B4 12          	LD (DE),A
1017   86B5 13          	INC DE
1018   86B6 0C          	INC C
1019   86B7 3A 44 FF    	LD A,(ADRSINP+1)
1020   86BA 12          	LD (DE),A
1021   86BB 13          	INC DE
1022   86BC 0C          	INC C
1023   86BD C9          	RET
1024   86BE             	
1025   86BE             	
1026   86BE             	;-----------------efex DISASSEMBLER---------------------
1027   86BE             ;
1028   86BE             ;FFC0H :TOTBYTECNT   ;TOTAL BYTE COUNT OF LINE
1029   86BE             ;FFC2H :DISCODELEN   ;TABLE FINDED COMMAND BYTE LENGHT 1,2,3,OR 4..
1030   86BE             ;FFC4H :DISTOTLEN    ;COMMAND TOTAL LENGHT WITH OPERAND
1031   86BE             ;FFC6H :NULDOLNUM    ;IF THE OPERAND NULL, BYTE OR WORD(1 BYTE-2 BYTE) # OR DOLLAR
1032   86BE             ;FFD0H :DISADDR	     ;DISSASEMBLING ADRESS
1033   86BE             ;FFD2H :DISFINDAD    ;DISASEMBLER FINDED CODE ADRESS
1034   86BE             ;FFD4  :MNESTAD	     ;MNEMONIC START ADRESS IN TABLE 
1035   86BE             ;FFD6  :MNENDAD	     ;MNEMONIC END ADRESS IN TABLE
1036   86BE             ;FFDAH :MNELEN       ;MNEMONIC LENGHT
1037   86BE             ;F900H :NEXTCODE     ;NEXT CODE START ADRESS IN DISSASEMBLE SECTOR !!!!FFDC CALISMADI!!!!
1038   86BE             ;F902H :SECTORC      ;DISASEMBLING  LINE COUNT
1039   86BE             ;FFD8H :OPERAND      ;# OR $ OPERAND IN COMMAND LINE
1040   86BE             ;FFE0H :OPCNT        ;OPERAND COUNT (#,$ : 0,1 OR 2)
1041   86BE             ;3F80-3F90  :CODEBUF         ;CODE BUFFER-----				
1042   86BE             
1043   86BE             DISASSEMBLER:
1044   86BE             	TOTBYTECNT EQU 0FFC0H
1045   86BE             	DISADDR EQU 0FFD0H
1046   86BE             	DISFINDAD EQU 0FFD2H
1047   86BE             	DISCODELEN EQU 0FFC2H
1048   86BE             	DISTOTLEN EQU 0FFC4H
1049   86BE             	MNESTAD EQU 0FFD4H
1050   86BE             	MNENDAD EQU 0FFD6H
1051   86BE             	OPERAND EQU 0FFD8H
1052   86BE             	MNELEN EQU 0FFDAH
1053   86BE             	NEXTCODE EQU 0F900H
1054   86BE             	SECTORC EQU 0F902H
1055   86BE             	OPCNT EQU 0FFE0H
1056   86BE             	
1057   86BE             
1058   86BE             	
1059   86BE             	
1060   86BE 21 CD 86    	LD HL,TABLE_DS ;DISASSEMBLER MESSAGE
1061   86C1 06 18       	LD B,24   
1062   86C3 7E          DISDS:	LD A,(HL)
1063   86C4 CD 32 80    	CALL TXD
1064   86C7 23                  INC HL
1065   86C8 10 F9       	DJNZ DISDS
1066   86CA C3 E5 86    	JP CONTDS
1067   86CD             	
1068   86CD             TABLE_DS:
1069   86CD 0A 0D       	.DB 0AH,0DH
1070   86CF 44 69 73 61 	.DB 'Disassembly '
1070   86D3 73 73 65 6D 
1070   86D7 62 6C 79 20 
1071   86DB 6C 69 73 74 	.DB 'listing:'
1071   86DF 69 6E 67 3A 
1072   86E3 0A 0D       	.DB 0AH,0DH
1073   86E5             	
1074   86E5             	
1075   86E5             CONTDS:
1076   86E5 3E 00       	LD A,0
1077   86E7 32 A0 FF    	LD (LINELENGHT),A	;CLEAR ALL COUNTER BUFFERS
1078   86EA 32 A1 FF    	LD (LINELENGHT+1),A
1079   86ED 32 B0 FF    	LD (OPBYTECNT),A
1080   86F0 32 B2 FF    	LD (DIYEZDOLAR),A
1081   86F3 32 B3 FF    	LD (CODEBUFLEN),A
1082   86F6 32 B4 FF    	LD (CODEBUFLEN+1),A
1083   86F9 32 C0 FF    	LD (TOTBYTECNT),A
1084   86FC 32 C2 FF    	LD (DISCODELEN),A
1085   86FF 32 E0 FF    	LD (OPCNT),A
1086   8702 32 00 F9    	LD (NEXTCODE),A
1087   8705 32 01 F9    	LD (NEXTCODE +1),A
1088   8708             	
1089   8708             ;---ASK WITH INPUT DISASSEMBLE ADRESS HERE---
1090   8708 3E 44       ASKDIS: LD A,'D'
1091   870A CD 32 80    	CALL TXD
1092   870D 3E 2D       	LD A,'-'
1093   870F CD 32 80    	CALL TXD 
1094   8712 3E 24       	LD A, '$'
1095   8714 CD 32 80    	CALL TXD
1096   8717 3E 3F       	LD A, '?'
1097   8719 CD 32 80    	CALL TXD
1098   871C 3E 08       	LD A, 08H
1099   871E CD 32 80    	CALL TXD ; DISPLAY 4 CHAR INPUT PROMPT
1100   8721             	
1101   8721 21 20 FF            LD HL, KEYINBUF  ;4 CHAR ADRESS INPUT
1102   8724 06 04       	LD B,4
1103   8726 CD 3E 80    DISASK:	CALL RXD
1104   8729 FE 1B       	CP 1BH
1105   872B CA 6C 81    	JP Z, MA_IN
1106   872E 77          	LD (HL), A
1107   872F 23          	INC HL
1108   8730 CD 32 80    	CALL TXD
1109   8733 10 F1       	DJNZ DISASK
1110   8735             	
1111   8735             
1112   8735 CD A9 A1    	CALL INTLINR  ;ADRESS AT 3F40 AND 3F41
1113   8738 2A 40 FF    	LD HL,(KEYINRES)
1114   873B 22 43 FF    	LD (ADRSINP),HL ; 3F43 STORES RESULT ADRESS
1115   873E 3E 3A       	LD A, ':'
1116   8740 CD 32 80    	CALL TXD
1117   8743             	
1118   8743 2A 43 FF    	LD HL,(ADRSINP)   ;GIRILEN ADRESS
1119   8746 22 00 F9    	LD (NEXTCODE),HL	;NEXTCODE IS INCREASE LOOP ADRESS FOR DISASSEMBLER
1120   8749             ;----------ADRESS INPUT COMPLETED HERE---
1121   8749             
1122   8749             DONDISZ:
1123   8749 3E 10       	LD A,16			;16 LINES SHOWING PER PROCESS
1124   874B 32 02 F9    	LD (SECTORC),A
1125   874E             	
1126   874E             DONDISY:
1127   874E 3E 00       	LD A,0
1128   8750 32 A0 FF    	LD (LINELENGHT),A	;CLEAR ALL COUNTER BUFFERS
1129   8753 32 A1 FF    	LD (LINELENGHT+1),A
1130   8756 32 B0 FF    	LD (OPBYTECNT),A
1131   8759 32 B2 FF    	LD (DIYEZDOLAR),A
1132   875C 32 B3 FF    	LD (CODEBUFLEN),A
1133   875F 32 B4 FF    	LD (CODEBUFLEN+1),A
1134   8762 32 C0 FF    	LD (TOTBYTECNT),A
1135   8765 32 C2 FF    	LD (DISCODELEN),A
1136   8768 32 E0 FF    	LD (OPCNT),A
1137   876B             	
1138   876B             
1139   876B             DONDISX:
1140   876B 2A 00 F9    	LD HL,(NEXTCODE)				;MAIN LOOP FOR DISASEMBLY LINES
1141   876E 22 D0 FF    	LD (DISADDR),HL        
1142   8771             											
1143   8771 21 01 00    	LD HL,1
1144   8774 22 A0 FF    	LD (LINELENGHT),HL
1145   8777 21 F5 88    	LD HL,TABLECOD
1146   877A ED 5B D0 FF 	LD DE,(DISADDR)
1147   877E             		
1148   877E 1A          DONDIS:	LD A,(DE)
1149   877F             
1150   877F FE ED       	CP 0EDH
1151   8781 CA A6 87    	JP Z,AFTER		;IF AFTER ED,CB,DD,FD COMMANDS 
1152   8784 FE CB       	CP 0CBH
1153   8786 CA A6 87    	JP Z,AFTER
1154   8789 FE DD       	CP 0DDH
1155   878B CA A6 87    	JP Z,AFTER
1156   878E FE FD       	CP 0FDH
1157   8790 CA A6 87    	JP Z,AFTER
1158   8793             
1159   8793             	
1160   8793             
1161   8793             	
1162   8793 BE          	CP (HL)
1163   8794 CA 9B 87    	JP Z,CHECKINDEX     ;JP Z,FOUNDDIS
1164   8797 23          	INC HL
1165   8798 C3 7E 87    DVM1:	JP DONDIS
1166   879B             	
1167   879B             	
1168   879B             CHECKINDEX:      ;CHECK IF 0FFH AFTER CODE?
1169   879B 23          	INC HL 
1170   879C 3E FF       	LD A,0FFH
1171   879E BE          	CP (HL)
1172   879F C2 98 87    	JP NZ,DVM1 ;NO INDEX--->CONT TO SEARC
1173   87A2 2B          	DEC HL     ;INDEX FOUND, DEC HL TO COMMAND'S ADRESS
1174   87A3 C3 1C 88    	JP FOUNDDIS
1175   87A6             		
1176   87A6             	;----AFTER DD DE,EE,FB,.. COMMANDS PROCESS START HERE---
1177   87A6             AFTER: 
1178   87A6             
1179   87A6             
1180   87A6 21 12 93    	LD HL,AFTERCOD   ;SEARCH AND FIND MNEMONIC TABLE ADRESS INDEX
1181   87A9 22 A2 FF    	LD (TABFINDAD),HL
1182   87AC 2A A2 FF    LOOPFD:	LD HL,(TABFINDAD)
1183   87AF ED 5B D0 FF 	LD DE, (DISADDR)
1184   87B3 01 02 00    	LD BC,2         ;(LINELENGHT)
1185   87B6             		
1186   87B6 1A          LOOPCD:	LD A,(DE)
1187   87B7 BE          	CP (HL)
1188   87B8 C2 C6 87    	JP NZ, NOTFOUNDD
1189   87BB 23          	INC HL
1190   87BC 13          	INC DE
1191   87BD 0B          	DEC BC
1192   87BE 78          	LD A, B
1193   87BF B1          	OR C
1194   87C0 C2 B6 87    	JP NZ,LOOPCD
1195   87C3             	
1196   87C3 C3 16 88    	JP FOUNDD
1197   87C6             	
1198   87C6             NOTFOUNDD:		;IF STRING NOT FOUND INCREASE TABLE SEARCH ADRESS
1199   87C6 2A A2 FF    	LD HL,(TABFINDAD)	;THIS IS NAIVE STRING MATCHING ALGORITHM
1200   87C9 23          	INC HL
1201   87CA             	
1202   87CA                  ;THIS CODE ADDED FOR TABLE END CONTROL	
1203   87CA             
1204   87CA E5          	PUSH HL			;;TABLE END CONTROL FOR SYNTAX ERROR
1205   87CB D5          	PUSH DE
1206   87CC             	
1207   87CC 21 87 9D    	LD HL,CODEND
1208   87CF ED 5B A2 FF 	LD DE,(TABFINDAD)
1209   87D3 B7          	OR A     ;CLEAR CARRY FLAG
1210   87D4 ED 52       	SBC HL,DE
1211   87D6 CA E1 87    	JP Z,ENDCONTROLD
1212   87D9             	
1213   87D9 D1          	POP DE
1214   87DA E1          	POP HL
1215   87DB             
1216   87DB             	
1217   87DB             	
1218   87DB                  ;THIS CODE ADDED FOR TABLE END CONTROL	
1219   87DB             	
1220   87DB 22 A2 FF    	LD (TABFINDAD),HL
1221   87DE C3 AC 87    	JP LOOPFD       ;IF NOT CONTINUE SEARCH
1222   87E1             	
1223   87E1             ENDCONTROLD:		;UNKNOWN CODE ROUTINE; PRINT *** AND GOTO NEXT ADRESS
1224   87E1             
1225   87E1 3E 0A       	LD A,0AH
1226   87E3 CD 32 80    	CALL TXD
1227   87E6 3E 0D       	LD A,0DH
1228   87E8 CD 32 80    	CALL TXD
1229   87EB             
1230   87EB 2A D0 FF    	LD HL,(DISADDR)
1231   87EE 7C          	LD A,H
1232   87EF CD C2 A2    	CALL HEXOUT
1233   87F2 7D          	LD A,L
1234   87F3 CD C2 A2    	CALL HEXOUT
1235   87F6 3E 20       	LD A,' '
1236   87F8 CD 32 80    	CALL TXD
1237   87FB 3E 20       	LD A,' '
1238   87FD CD 32 80    	CALL TXD		
1239   8800 3E 2A       	LD A,'*'
1240   8802 CD 32 80    	CALL TXD
1241   8805 3E 2A       	LD A,'*'
1242   8807 CD 32 80    	CALL TXD
1243   880A 3E 2A       	LD A,'*'
1244   880C CD 32 80    	CALL TXD
1245   880F             
1246   880F             	
1247   880F             	
1248   880F 23          	INC HL
1249   8810 22 00 F9    	LD (NEXTCODE),HL
1250   8813 C3 6B 87    	JP DONDISX
1251   8816             	
1252   8816             
1253   8816             	
1254   8816             
1255   8816 2A A2 FF    FOUNDD:	LD HL,(TABFINDAD)
1256   8819             	
1257   8819 22 D2 FF    	LD (DISFINDAD),HL
1258   881C             
1259   881C             	
1260   881C             	
1261   881C             	
1262   881C             
1263   881C             ;------AFTER DD DE EE FB.. COMMANDS PROCESS END HERE
1264   881C             
1265   881C             	
1266   881C             FOUNDDIS:		;ANYWAY (AFTER OR SINGLE) COMMAND FOUND	
1267   881C             	;LD  HL,(TABFINDAD)
1268   881C             
1269   881C 22 D2 FF    	LD  (DISFINDAD),HL
1270   881F             
1271   881F 3E 0A       	LD A,0AH
1272   8821 CD 32 80    	CALL TXD
1273   8824 3E 0D       	LD A,0DH
1274   8826 CD 32 80    	CALL TXD
1275   8829             	
1276   8829             
1277   8829 2A D2 FF    	LD HL,(DISFINDAD) 	;FINDED CODE FIRST BYTE
1278   882C 2B          	DEC HL
1279   882D 7E          	LD A,(HL)
1280   882E 32 C2 FF    	LD (DISCODELEN),A   	;CODE BYTE LENGHT
1281   8831 2B          	DEC HL
1282   8832 22 D6 FF    	LD (MNENDAD),HL		;MNEMONIC END ADRESS
1283   8835             	
1284   8835 2B          DIS45:	DEC HL
1285   8836 7E          	LD A,(HL)
1286   8837 FE 5F       	CP '_'
1287   8839 20 FA       	JR NZ, DIS45
1288   883B 23          	INC HL
1289   883C 22 D4 FF    	LD (MNESTAD),HL		;MNEMONIC START ADRESS IN TABLE
1290   883F 3A C2 FF    	LD A,(DISCODELEN)
1291   8842 47          	LD B,A
1292   8843 2A D0 FF    	LD HL,(DISADDR)
1293   8846 23          DIS51:	INC HL
1294   8847 10 FD       	DJNZ DIS51
1295   8849             	
1296   8849             	
1297   8849             					;HL HOLDS OPERAND FIRST BYTE HERE
1298   8849 22 D8 FF    	LD (OPERAND),HL	 ;OPERAND1: IF #; FIRST BYTE, IF $; LOW AND HIGH BYTES IN ORDER
1299   884C             	
1300   884C             		
1301   884C             	
1302   884C             DISPROC:		;WRITES DISASEMBLED CODE TO CODE BUFFER
1303   884C             
1304   884C 3E 0D       	LD A,0DH
1305   884E CD 32 80    	CALL TXD
1306   8851 3E 0D       	LD A,0DH
1307   8853 CD 32 80    	CALL TXD
1308   8856             	
1309   8856             	; BURADA MNEMONIC LENGHT IN HESAPLANMASI GEREKIYOR
1310   8856 2A D4 FF    	LD HL,(MNESTAD)
1311   8859 54          	LD D,H
1312   885A 5D          	LD E,L
1313   885B 2A D6 FF    	LD HL,(MNENDAD)
1314   885E B7          	OR A
1315   885F ED 52       	SBC HL,DE
1316   8861 22 DA FF    	LD (MNELEN),HL
1317   8864             	
1318   8864 3A DA FF    	LD A,(MNELEN)	;AT LAST ITS 1 BYTE AND STORED IN L
1319   8867             	
1320   8867             
1321   8867 2A D0 FF    	LD HL,(DISADDR)
1322   886A 7C          	LD A,H
1323   886B CD C2 A2    	CALL HEXOUT
1324   886E 7D          	LD A,L
1325   886F CD C2 A2    	CALL HEXOUT
1326   8872 3E 20       	LD A,' '
1327   8874 CD 32 80    	CALL TXD
1328   8877 3E 20       	LD A,' '
1329   8879 CD 32 80    	CALL TXD
1330   887C             		
1331   887C             	
1332   887C             	
1333   887C 3A DA FF    	LD A,(MNELEN)	;AT LAST ITS 1 BYTE AND STORED IN L
1334   887F 2A D4 FF    	LD HL,(MNESTAD)
1335   8882 47          	LD B,A	;(MNELEN)
1336   8883 04          	INC B
1337   8884 7E          DIS46:	LD A,(HL)
1338   8885 FE 23       	CP '#'
1339   8887 CA C3 88    	JP Z,DISDIYEZ
1340   888A FE 24       	CP '$'
1341   888C CA D9 88    	JP Z,DISDOLAR
1342   888F CD 32 80    	CALL TXD
1343   8892 23          DIS50:	INC HL
1344   8893 10 EF       	DJNZ DIS46
1345   8895             	
1346   8895             
1347   8895             	
1348   8895             
1349   8895             
1350   8895 2A 00 F9    	LD HL,(NEXTCODE)
1351   8898 3A C2 FF    	LD A,(DISCODELEN) ;CODE LENGHT
1352   889B 47          	LD B,A
1353   889C 3A E0 FF    	LD A,(OPCNT)	;OPERAND COUND
1354   889F 80          	ADD A,B
1355   88A0 11 00 00    	LD DE,0
1356   88A3 5F          	LD E,A
1357   88A4 19          	ADD HL,DE
1358   88A5 22 00 F9    	LD (NEXTCODE),HL
1359   88A8             	
1360   88A8             	
1361   88A8             	
1362   88A8 3A 02 F9    	LD A,(SECTORC)
1363   88AB 3D          	DEC A
1364   88AC CA B5 88    	JP Z,DONE    	;JP Z,MA_IN
1365   88AF 32 02 F9    	LD (SECTORC),A
1366   88B2             
1367   88B2 C3 4E 87    	JP DONDISY
1368   88B5             	;JP MA_IN		;EXIT POINT FROM DISASSEMBLER
1369   88B5             	
1370   88B5 CD 3E 80    DONE:	CALL RXD
1371   88B8 FE 1B       	CP 01BH
1372   88BA CA 6C 81    	JP Z,MA_IN
1373   88BD C3 49 87    	JP DONDISZ
1374   88C0 C3 B5 88    	JP DONE	
1375   88C3             
1376   88C3             	
1377   88C3             
1378   88C3             
1379   88C3             
1380   88C3             
1381   88C3             
1382   88C3             
1383   88C3             
1384   88C3             
1385   88C3             
1386   88C3             	
1387   88C3             	
1388   88C3             	
1389   88C3             DISDIYEZ:
1390   88C3 3E 01       	LD A,1
1391   88C5 32 E0 FF    	LD (OPCNT),A
1392   88C8 3E 23       	LD A,'#'
1393   88CA CD 32 80    	CALL TXD
1394   88CD E5          	PUSH HL
1395   88CE 2A D8 FF    	LD HL,(OPERAND)
1396   88D1 7E          	LD A,(HL)
1397   88D2 CD C2 A2    	CALL HEXOUT
1398   88D5 E1          	POP HL
1399   88D6 C3 92 88    	JP DIS50
1400   88D9             	
1401   88D9             DISDOLAR:
1402   88D9 3E 02       	LD A,2
1403   88DB 32 E0 FF    	LD (OPCNT),A
1404   88DE 3E 24       	LD A,'$'
1405   88E0 CD 32 80    	CALL TXD
1406   88E3 E5          	PUSH HL
1407   88E4 2A D8 FF    	LD HL,(OPERAND)
1408   88E7 23          	INC HL
1409   88E8 7E          	LD A,(HL)
1410   88E9 CD C2 A2    	CALL HEXOUT
1411   88EC 2B          	DEC HL
1412   88ED 7E          	LD A,(HL)
1413   88EE CD C2 A2    	CALL HEXOUT
1414   88F1 E1          	POP HL
1415   88F2 C3 92 88    	JP DIS50
1416   88F5             	
1417   88F5             		 	
1418   88F5             	
1419   88F5             	
1420   88F5             	
1421   88F5             	
1422   88F5             	
1423   88F5             			
1424   88F5             	
1425   88F5             	
1426   88F5             		
1427   88F5             			
1428   88F5             	
1429   88F5             	
1430   88F5             	
1431   88F5             	
1432   88F5             		
1433   88F5             
1434   88F5             
1435   88F5             ;--------------------------DISASSEMBLER FINISHED HERE----------------------	
1436   88F5             ;--ASSEMBLER AND DISASSEMBLER OPERATES ON SAME TABLE
1437   88F5             ;
1438   88F5             ;        
1439   88F5             ;INSTRUCTION , VIRGUL, CODE COUNT,MACHINE CODE,OPERAND #-$-NULL, TOTAL BYTE COUNT 
1440   88F5             ;2CH VIRGUL DEMEK
1441   88F5             ;BU ASSEMBLER .DB DE VIRGUL KABUL ETMIYOR!!!
1442   88F5             
1443   88F5             	
1444   88F5             TABLECOD:
1445   88F5             
1446   88F5 5F 4C 44 20 	.DB '_LD SP',2CH,'$',1,031H,0FFH 	;KEND YERNDE ALIMADI BU AQ. KODU :(
1446   88F9 53 50 2C 24 
1446   88FD 01 31 FF    
1447   8900             
1448   8900 5F 41 44 43 	.DB '_ADC A',2CH,'(HL)',1,08EH,0FFH
1448   8904 20 41 2C 28 
1448   8908 48 4C 29 01 
1448   890C 8E FF       
1449   890E             
1450   890E 5F 41 44 43 	.DB '_ADC A',2CH,'A',1,08FH,0FFH	;0FFH IS NULL INDEX CODE TO FIND  COMMAND 
1450   8912 20 41 2C 41 
1450   8916 01 8F FF    
1451   8919 5F 41 44 43 	.DB '_ADC A',2CH,'B',1,088H,0FFH	;'_' IS INDEX CHAR TO FIND MNEMONIC
1451   891D 20 41 2C 42 
1451   8921 01 88 FF    
1452   8924 5F 41 44 43 	.DB '_ADC A',2CH,'C',1,089H,0FFH
1452   8928 20 41 2C 43 
1452   892C 01 89 FF    
1453   892F 5F 41 44 43 	.DB '_ADC A',2CH,'D',1,08AH,0FFH
1453   8933 20 41 2C 44 
1453   8937 01 8A FF    
1454   893A 5F 41 44 43 	.DB '_ADC A',2CH,'E',1,08BH,0FFH
1454   893E 20 41 2C 45 
1454   8942 01 8B FF    
1455   8945 5F 41 44 43 	.DB '_ADC A',2CH,'H',1,08CH,0FFH
1455   8949 20 41 2C 48 
1455   894D 01 8C FF    
1456   8950 5F 41 44 43 	.DB '_ADC A',2CH,'L',1,08DH,0FFH
1456   8954 20 41 2C 4C 
1456   8958 01 8D FF    
1457   895B 5F 41 44 43 	.DB '_ADC A',2CH,'#',1,0CEH,0FFH
1457   895F 20 41 2C 23 
1457   8963 01 CE FF    
1458   8966             
1459   8966                
1460   8966 5F 41 44 44 	.DB '_ADD A',2CH,'(HL)',1,086H,0FFH
1460   896A 20 41 2C 28 
1460   896E 48 4C 29 01 
1460   8972 86 FF       
1461   8974             
1462   8974 5F 41 44 44 	.DB '_ADD A',2CH,'A',1,087H,0FFH
1462   8978 20 41 2C 41 
1462   897C 01 87 FF    
1463   897F 5F 41 44 44 	.DB '_ADD A',2CH,'B',1,080H,0FFH
1463   8983 20 41 2C 42 
1463   8987 01 80 FF    
1464   898A 5F 41 44 44 	.DB '_ADD A',2CH,'C',1,081H,0FFH
1464   898E 20 41 2C 43 
1464   8992 01 81 FF    
1465   8995 5F 41 44 44 	.DB '_ADD A',2CH,'D',1,082H,0FFH
1465   8999 20 41 2C 44 
1465   899D 01 82 FF    
1466   89A0 5F 41 44 44 	.DB '_ADD A',2CH,'E',1,083H,0FFH
1466   89A4 20 41 2C 45 
1466   89A8 01 83 FF    
1467   89AB 5F 41 44 44 	.DB '_ADD A',2CH,'H',1,084H,0FFH
1467   89AF 20 41 2C 48 
1467   89B3 01 84 FF    
1468   89B6 5F 41 44 44 	.DB '_ADD A',2CH,'L',1,085H,0FFH
1468   89BA 20 41 2C 4C 
1468   89BE 01 85 FF    
1469   89C1 5F 41 44 44 	.DB '_ADD A',2CH,'#',1,0C6H,0FFH
1469   89C5 20 41 2C 23 
1469   89C9 01 C6 FF    
1470   89CC 5F 41 44 44 	.DB '_ADD HL',2CH,'BC',1,009H,0FFH
1470   89D0 20 48 4C 2C 
1470   89D4 42 43 01 09 
1470   89D8 FF          
1471   89D9 5F 41 44 44 	.DB '_ADD HL',2CH,'DE',1,019H,0FFH
1471   89DD 20 48 4C 2C 
1471   89E1 44 45 01 19 
1471   89E5 FF          
1472   89E6 5F 41 44 44 	.DB '_ADD HL',2CH,'HL',1,029H,0FFH
1472   89EA 20 48 4C 2C 
1472   89EE 48 4C 01 29 
1472   89F2 FF          
1473   89F3 5F 41 44 44 	.DB '_ADD HL',2CH,'SP',1,039H,0FFH
1473   89F7 20 48 4C 2C 
1473   89FB 53 50 01 39 
1473   89FF FF          
1474   8A00             
1475   8A00                
1476   8A00 5F 41 4E 44 	.DB '_AND (HL)',1,0A6H,0FFH
1476   8A04 20 28 48 4C 
1476   8A08 29 01 A6 FF 
1477   8A0C             
1478   8A0C 5F 41 4E 44 	.DB '_AND A',1,0A7H,0FFH
1478   8A10 20 41 01 A7 
1478   8A14 FF          
1479   8A15 5F 41 4E 44 	.DB '_AND B',1,0A0H,0FFH
1479   8A19 20 42 01 A0 
1479   8A1D FF          
1480   8A1E 5F 41 4E 44 	.DB '_AND C',1,0A1H,0FFH
1480   8A22 20 43 01 A1 
1480   8A26 FF          
1481   8A27 5F 41 4E 44 	.DB '_AND D',1,0A2H,0FFH
1481   8A2B 20 44 01 A2 
1481   8A2F FF          
1482   8A30 5F 41 4E 44 	.DB '_AND E',1,0A3H,0FFH
1482   8A34 20 45 01 A3 
1482   8A38 FF          
1483   8A39 5F 41 4E 44 	.DB '_AND H',1,0A4H,0FFH
1483   8A3D 20 48 01 A4 
1483   8A41 FF          
1484   8A42 5F 41 4E 44 	.DB '_AND L',1,0A5H,0FFH
1484   8A46 20 4C 01 A5 
1484   8A4A FF          
1485   8A4B 5F 41 4E 44 	.DB '_AND #',1,0E6H,0FFH
1485   8A4F 20 23 01 E6 
1485   8A53 FF          
1486   8A54             	
1487   8A54             
1488   8A54             	   
1489   8A54             
1490   8A54             	   
1491   8A54 5F 43 41 4C 	.DB '_CALL C',2CH,'$',1,0DCH,0FFH
1491   8A58 4C 20 43 2C 
1491   8A5C 24 01 DC FF 
1492   8A60 5F 43 41 4C 	.DB '_CALL M',2CH,'$',1,0FCH,0FFH
1492   8A64 4C 20 4D 2C 
1492   8A68 24 01 FC FF 
1493   8A6C 5F 43 41 4C 	.DB '_CALL NC',2CH,'$',1,0D4H,0FFH
1493   8A70 4C 20 4E 43 
1493   8A74 2C 24 01 D4 
1493   8A78 FF          
1494   8A79 5F 43 41 4C 	.DB '_CALL NZ',2CH,'$',1,0C4H,0FFH
1494   8A7D 4C 20 4E 5A 
1494   8A81 2C 24 01 C4 
1494   8A85 FF          
1495   8A86 5F 43 41 4C 	.DB '_CALL P',2CH,'$',1,0F4H,0FFH
1495   8A8A 4C 20 50 2C 
1495   8A8E 24 01 F4 FF 
1496   8A92 5F 43 41 4C 	.DB '_CALL PE',2CH,'$',1,0ECH,0FFH
1496   8A96 4C 20 50 45 
1496   8A9A 2C 24 01 EC 
1496   8A9E FF          
1497   8A9F 5F 43 41 4C 	.DB '_CALL PO',2CH,'$',1,0E4H,0FFH
1497   8AA3 4C 20 50 4F 
1497   8AA7 2C 24 01 E4 
1497   8AAB FF          
1498   8AAC 5F 43 41 4C 	.DB '_CALL Z',2CH,'$',1,0CCH,0FFH
1498   8AB0 4C 20 5A 2C 
1498   8AB4 24 01 CC FF 
1499   8AB8 5F 43 41 4C 	.DB '_CALL $',1,0CDH,0FFH
1499   8ABC 4C 20 24 01 
1499   8AC0 CD FF       
1500   8AC2             	   
1501   8AC2 5F 43 43 46 	.DB '_CCF',1,03FH,0FFH
1501   8AC6 01 3F FF    
1502   8AC9             	   
1503   8AC9 5F 43 50 20 	.DB '_CP (HL)',1,0BEH,0FFH
1503   8ACD 28 48 4C 29 
1503   8AD1 01 BE FF    
1504   8AD4             
1505   8AD4 5F 43 50 20 	.DB '_CP A',1,0BFH,0FFH
1505   8AD8 41 01 BF FF 
1506   8ADC 5F 43 50 20 	.DB '_CP B',1,0B8H,0FFH
1506   8AE0 42 01 B8 FF 
1507   8AE4 5F 43 50 20 	.DB '_CP C',1,0B9H,0FFH
1507   8AE8 43 01 B9 FF 
1508   8AEC 5F 43 50 20 	.DB '_CP D',1,0BAH,0FFH
1508   8AF0 44 01 BA FF 
1509   8AF4 5F 43 50 20 	.DB '_CP E',1,0BBH,0FFH
1509   8AF8 45 01 BB FF 
1510   8AFC 5F 43 50 20 	.DB '_CP H',1,0BCH,0FFH
1510   8B00 48 01 BC FF 
1511   8B04 5F 43 50 20 	.DB '_CP L',1,0BDH,0FFH
1511   8B08 4C 01 BD FF 
1512   8B0C 5F 43 50 20 	.DB '_CP #',1,0FEH,0FFH
1512   8B10 23 01 FE FF 
1513   8B14             	
1514   8B14             
1515   8B14             
1516   8B14 5F 43 50 4C 	.DB '_CPL',1,02FH,0FFH
1516   8B18 01 2F FF    
1517   8B1B             	   
1518   8B1B 5F 44 41 41 	.DB '_DAA',1,027H,0FFH
1518   8B1F 01 27 FF    
1519   8B22             	   
1520   8B22 5F 44 45 43 	.DB '_DEC (HL)',1,035H,0FFH
1520   8B26 20 28 48 4C 
1520   8B2A 29 01 35 FF 
1521   8B2E             
1522   8B2E 5F 44 45 43 	.DB '_DEC A',1,03DH,0FFH
1522   8B32 20 41 01 3D 
1522   8B36 FF          
1523   8B37 5F 44 45 43 	.DB '_DEC B',1,005H,0FFH
1523   8B3B 20 42 01 05 
1523   8B3F FF          
1524   8B40 5F 44 45 43 	.DB '_DEC BC',1,00BH,0FFH
1524   8B44 20 42 43 01 
1524   8B48 0B FF       
1525   8B4A 5F 44 45 43 	.DB '_DEC C',1,00DH,0FFH
1525   8B4E 20 43 01 0D 
1525   8B52 FF          
1526   8B53 5F 44 45 43 	.DB '_DEC D',1,015H,0FFH
1526   8B57 20 44 01 15 
1526   8B5B FF          
1527   8B5C 5F 44 45 43 	.DB '_DEC DE',1,01BH,0FFH
1527   8B60 20 44 45 01 
1527   8B64 1B FF       
1528   8B66 5F 44 45 43 	.DB '_DEC E',1,01DH,0FFH
1528   8B6A 20 45 01 1D 
1528   8B6E FF          
1529   8B6F 5F 44 45 43 	.DB '_DEC H',1,025H,0FFH
1529   8B73 20 48 01 25 
1529   8B77 FF          
1530   8B78 5F 44 45 43 	.DB '_DEC HL',1,02BH,0FFH
1530   8B7C 20 48 4C 01 
1530   8B80 2B FF       
1531   8B82             
1532   8B82 5F 44 45 43 	.DB '_DEC L',1,02DH,0FFH
1532   8B86 20 4C 01 2D 
1532   8B8A FF          
1533   8B8B 5F 44 45 43 	.DB '_DEC SP',1,03BH,0FFH
1533   8B8F 20 53 50 01 
1533   8B93 3B FF       
1534   8B95 5F 44 49 01 	.DB '_DI',1,0F3H,0FFH
1534   8B99 F3 FF       
1535   8B9B 5F 44 4A 4E 	.DB '_DJNZ #',1,010H,0FFH
1535   8B9F 5A 20 23 01 
1535   8BA3 10 FF       
1536   8BA5             	   
1537   8BA5 5F 45 49 01 	.DB '_EI',1,0FBH,0FFH
1537   8BA9 FB FF       
1538   8BAB 5F 45 58 20 	.DB '_EX (SP)',2CH,'HL',1,0E3H,0FFH
1538   8BAF 28 53 50 29 
1538   8BB3 2C 48 4C 01 
1538   8BB7 E3 FF       
1539   8BB9 5F 45 58 20 	.DB '_EX AF',2CH,'AF',1,008H,0FFH
1539   8BBD 41 46 2C 41 
1539   8BC1 46 01 08 FF 
1540   8BC5 5F 45 58 20 	.DB '_EX DE',2CH,'HL',1,0EBH,0FFH
1540   8BC9 44 45 2C 48 
1540   8BCD 4C 01 EB FF 
1541   8BD1 5F 45 58 58 	.DB '_EXX',1,0D9H,0FFH
1541   8BD5 01 D9 FF    
1542   8BD8             
1543   8BD8 5F 48 41 4C 	.DB '_HALT',1,076H,0FFH
1543   8BDC 54 01 76 FF 
1544   8BE0             	   
1545   8BE0             
1546   8BE0             	   
1547   8BE0             
1548   8BE0             	   
1549   8BE0 5F 49 4E 20 	.DB '_IN A',2CH,'(#)',1,0DBH,0FFH
1549   8BE4 41 2C 28 23 
1549   8BE8 29 01 DB FF 
1550   8BEC             	   
1551   8BEC             
1552   8BEC 5F 49 4E 43 	 DB '_INC (HL)',1,034H,0FFH
1552   8BF0 20 28 48 4C 
1552   8BF4 29 01 34 FF 
1553   8BF8             
1554   8BF8 5F 49 4E 43 	.DB '_INC A',1,03CH,0FFH
1554   8BFC 20 41 01 3C 
1554   8C00 FF          
1555   8C01 5F 49 4E 43 	.DB '_INC B',1,004H,0FFH
1555   8C05 20 42 01 04 
1555   8C09 FF          
1556   8C0A 5F 49 4E 43 	.DB '_INC BC',1,003H,0FFH
1556   8C0E 20 42 43 01 
1556   8C12 03 FF       
1557   8C14 5F 49 4E 43 	.DB '_INC C',1,00CH,0FFH
1557   8C18 20 43 01 0C 
1557   8C1C FF          
1558   8C1D 5F 49 4E 43 	.DB '_INC D',1,014H,0FFH
1558   8C21 20 44 01 14 
1558   8C25 FF          
1559   8C26 5F 49 4E 43 	.DB '_INC DE',1,013H,0FFH
1559   8C2A 20 44 45 01 
1559   8C2E 13 FF       
1560   8C30 5F 49 4E 43 	.DB '_INC E',1,01CH,0FFH
1560   8C34 20 45 01 1C 
1560   8C38 FF          
1561   8C39 5F 49 4E 43 	.DB '_INC H',1,024H,0FFH
1561   8C3D 20 48 01 24 
1561   8C41 FF          
1562   8C42 5F 49 4E 43 	.DB '_INC HL',1,023H,0FFH
1562   8C46 20 48 4C 01 
1562   8C4A 23 FF       
1563   8C4C             
1564   8C4C 5F 49 4E 43 	.DB '_INC L',1,02CH,0FFH
1564   8C50 20 4C 01 2C 
1564   8C54 FF          
1565   8C55 5F 49 4E 43 	.DB '_INC SP',1,033H,0FFH
1565   8C59 20 53 50 01 
1565   8C5D 33 FF       
1566   8C5F             	   
1567   8C5F 5F 4A 52 20 	.DB '_JR C',2CH,'#',1,038H,0FFH
1567   8C63 43 2C 23 01 
1567   8C67 38 FF       
1568   8C69 5F 4A 52 20 	.DB '_JR NC',2CH,'#',1,030H,0FFH
1568   8C6D 4E 43 2C 23 
1568   8C71 01 30 FF    
1569   8C74 5F 4A 52 20 	.DB '_JR NZ',2CH,'#',1,020H,0FFH
1569   8C78 4E 5A 2C 23 
1569   8C7C 01 20 FF    
1570   8C7F 5F 4A 52 20 	.DB '_JR Z',2CH,'#',1,028H,0FFH
1570   8C83 5A 2C 23 01 
1570   8C87 28 FF       
1571   8C89 5F 4A 52 20 	.DB '_JR #',1,018H,0FFH	   
1571   8C8D 23 01 18 FF 
1572   8C91             
1573   8C91             	   
1574   8C91             
1575   8C91 5F 4A 50 20 	.DB '_JP (HL)',1,0E9H,0FFH
1575   8C95 28 48 4C 29 
1575   8C99 01 E9 FF    
1576   8C9C             
1577   8C9C 5F 4A 50 20 	.DB '_JP C',2CH,'$',1,0DAH,0FFH
1577   8CA0 43 2C 24 01 
1577   8CA4 DA FF       
1578   8CA6 5F 4A 50 20 	.DB '_JP M',2CH,'$',1,0FAH,0FFH
1578   8CAA 4D 2C 24 01 
1578   8CAE FA FF       
1579   8CB0 5F 4A 50 20 	.DB '_JP NC',2CH,'$',1,0D2H,0FFH
1579   8CB4 4E 43 2C 24 
1579   8CB8 01 D2 FF    
1580   8CBB 5F 4A 50 20 	.DB '_JP NZ',2CH,'$',1,0C2H,0FFH
1580   8CBF 4E 5A 2C 24 
1580   8CC3 01 C2 FF    
1581   8CC6 5F 4A 50 20 	.DB '_JP P',2CH,'$',1,0F2H,0FFH
1581   8CCA 50 2C 24 01 
1581   8CCE F2 FF       
1582   8CD0 5F 4A 50 20 	.DB '_JP PE',2CH,'$',1,0EAH,0FFH
1582   8CD4 50 45 2C 24 
1582   8CD8 01 EA FF    
1583   8CDB 5F 4A 50 20 	.DB '_JP PO',2CH,'$',1,0E2H,0FFH
1583   8CDF 50 4F 2C 24 
1583   8CE3 01 E2 FF    
1584   8CE6 5F 4A 50 20 	.DB '_JP Z',2CH,'$',1,0CAH,0FFH
1584   8CEA 5A 2C 24 01 
1584   8CEE CA FF       
1585   8CF0 5F 4A 50 20 	.DB '_JP $',1,0C3H,0FFH
1585   8CF4 24 01 C3 FF 
1586   8CF8             	   
1587   8CF8             
1588   8CF8             	   
1589   8CF8 5F 4C 44 20 	.DB '_LD (BC)',2CH,'A',1,002H,0FFH
1589   8CFC 28 42 43 29 
1589   8D00 2C 41 01 02 
1589   8D04 FF          
1590   8D05 5F 4C 44 20 	.DB '_LD (DE)',2CH,'A',1,012H,0FFH
1590   8D09 28 44 45 29 
1590   8D0D 2C 41 01 12 
1590   8D11 FF          
1591   8D12 5F 4C 44 20 	.DB '_LD (HL)',2CH,'A',1,077H,0FFH
1591   8D16 28 48 4C 29 
1591   8D1A 2C 41 01 77 
1591   8D1E FF          
1592   8D1F 5F 4C 44 20 	.DB '_LD (HL)',2CH,'B',1,070H,0FFH
1592   8D23 28 48 4C 29 
1592   8D27 2C 42 01 70 
1592   8D2B FF          
1593   8D2C 5F 4C 44 20 	.DB '_LD (HL)',2CH,'C',1,071H,0FFH
1593   8D30 28 48 4C 29 
1593   8D34 2C 43 01 71 
1593   8D38 FF          
1594   8D39 5F 4C 44 20 	.DB '_LD (HL)',2CH,'D',1,072H,0FFH
1594   8D3D 28 48 4C 29 
1594   8D41 2C 44 01 72 
1594   8D45 FF          
1595   8D46 5F 4C 44 20 	.DB '_LD (HL)',2CH,'E',1,073H,0FFH
1595   8D4A 28 48 4C 29 
1595   8D4E 2C 45 01 73 
1595   8D52 FF          
1596   8D53 5F 4C 44 20 	.DB '_LD (HL)',2CH,'H',1,074H,0FFH
1596   8D57 28 48 4C 29 
1596   8D5B 2C 48 01 74 
1596   8D5F FF          
1597   8D60 5F 4C 44 20 	.DB '_LD (HL)',2CH,'L',1,075H,0FFH
1597   8D64 28 48 4C 29 
1597   8D68 2C 4C 01 75 
1597   8D6C FF          
1598   8D6D 5F 4C 44 20 	.DB '_LD (HL)',2CH,'#',1,036H,0FFH
1598   8D71 28 48 4C 29 
1598   8D75 2C 23 01 36 
1598   8D79 FF          
1599   8D7A             
1600   8D7A 5F 4C 44 20 	.DB '_LD ($)',2CH,'A',1,032H,0FFH
1600   8D7E 28 24 29 2C 
1600   8D82 41 01 32 FF 
1601   8D86 5F 4C 44 20 	.DB '_LD ($)',2CH,'HL',1,022H,0FFH
1601   8D8A 28 24 29 2C 
1601   8D8E 48 4C 01 22 
1601   8D92 FF          
1602   8D93             	
1603   8D93             	
1604   8D93 5F 4C 44 20 	.DB '_LD A',2CH,'(BC)',1,00AH,0FFH
1604   8D97 41 2C 28 42 
1604   8D9B 43 29 01 0A 
1604   8D9F FF          
1605   8DA0 5F 4C 44 20 	.DB '_LD A',2CH,'(DE)',1,01AH,0FFH
1605   8DA4 41 2C 28 44 
1605   8DA8 45 29 01 1A 
1605   8DAC FF          
1606   8DAD 5F 4C 44 20 	.DB '_LD A',2CH,'(HL)',1,07EH,0FFH
1606   8DB1 41 2C 28 48 
1606   8DB5 4C 29 01 7E 
1606   8DB9 FF          
1607   8DBA             
1608   8DBA 5F 4C 44 20 	.DB '_LD A',2CH,'A',1,07FH,0FFH
1608   8DBE 41 2C 41 01 
1608   8DC2 7F FF       
1609   8DC4 5F 4C 44 20 	.DB '_LD A',2CH,'B',1,078H,0FFH
1609   8DC8 41 2C 42 01 
1609   8DCC 78 FF       
1610   8DCE 5F 4C 44 20 	.DB '_LD A',2CH,'C',1,079H,0FFH
1610   8DD2 41 2C 43 01 
1610   8DD6 79 FF       
1611   8DD8 5F 4C 44 20 	.DB '_LD A',2CH,'D',1,07AH,0FFH
1611   8DDC 41 2C 44 01 
1611   8DE0 7A FF       
1612   8DE2 5F 4C 44 20 	.DB '_LD A',2CH,'E',1,07BH,0FFH
1612   8DE6 41 2C 45 01 
1612   8DEA 7B FF       
1613   8DEC 5F 4C 44 20 	.DB '_LD A',2CH,'H',1,07CH,0FFH
1613   8DF0 41 2C 48 01 
1613   8DF4 7C FF       
1614   8DF6 5F 4C 44 20 	.DB '_LD A',2CH,'L',1,07DH,0FFH
1614   8DFA 41 2C 4C 01 
1614   8DFE 7D FF       
1615   8E00 5F 4C 44 20 	.DB '_LD A',2CH,'($)',1,03AH,0FFH
1615   8E04 41 2C 28 24 
1615   8E08 29 01 3A FF 
1616   8E0C 5F 4C 44 20 	.DB '_LD A',2CH,'#',1,03EH,0FFH             
1616   8E10 41 2C 23 01 
1616   8E14 3E FF       
1617   8E16 5F 4C 44 20 	.DB '_LD B',2CH,'(HL)',1,046H,0FFH
1617   8E1A 42 2C 28 48 
1617   8E1E 4C 29 01 46 
1617   8E22 FF          
1618   8E23 5F 4C 44 20 	.DB '_LD B',2CH,'A',1,047H,0FFH
1618   8E27 42 2C 41 01 
1618   8E2B 47 FF       
1619   8E2D 5F 4C 44 20 	.DB '_LD B',2CH,'B',1,040H,0FFH
1619   8E31 42 2C 42 01 
1619   8E35 40 FF       
1620   8E37 5F 4C 44 20 	.DB '_LD B',2CH,'C',1,041H,0FFH
1620   8E3B 42 2C 43 01 
1620   8E3F 41 FF       
1621   8E41 5F 4C 44 20 	.DB '_LD B',2CH,'D',1,042H,0FFH
1621   8E45 42 2C 44 01 
1621   8E49 42 FF       
1622   8E4B 5F 4C 44 20 	.DB '_LD B',2CH,'E',1,043H,0FFH
1622   8E4F 42 2C 45 01 
1622   8E53 43 FF       
1623   8E55 5F 4C 44 20 	.DB '_LD B',2CH,'H',1,044H,0FFH
1623   8E59 42 2C 48 01 
1623   8E5D 44 FF       
1624   8E5F 5F 4C 44 20 	.DB '_LD B',2CH,'L',1,045H,0FFH
1624   8E63 42 2C 4C 01 
1624   8E67 45 FF       
1625   8E69 5F 4C 44 20 	.DB '_LD B',2CH,'#',1,006H,0FFH
1625   8E6D 42 2C 23 01 
1625   8E71 06 FF       
1626   8E73 5F 4C 44 20 	.DB '_LD BC',2CH,'$',1,001H,0FFH
1626   8E77 42 43 2C 24 
1626   8E7B 01 01 FF    
1627   8E7E 5F 4C 44 20 	.DB '_LD C',2CH,'(HL)',1,04EH,0FFH
1627   8E82 43 2C 28 48 
1627   8E86 4C 29 01 4E 
1627   8E8A FF          
1628   8E8B 5F 4C 44 20 	.DB '_LD C',2CH,'A',1,04FH,0FFH
1628   8E8F 43 2C 41 01 
1628   8E93 4F FF       
1629   8E95 5F 4C 44 20 	.DB '_LD C',2CH,'B',1,048H,0FFH
1629   8E99 43 2C 42 01 
1629   8E9D 48 FF       
1630   8E9F 5F 4C 44 20 	.DB '_LD C',2CH,'C',1,049H,0FFH
1630   8EA3 43 2C 43 01 
1630   8EA7 49 FF       
1631   8EA9 5F 4C 44 20 	.DB '_LD C',2CH,'D',1,04AH,0FFH
1631   8EAD 43 2C 44 01 
1631   8EB1 4A FF       
1632   8EB3 5F 4C 44 20 	.DB '_LD C',2CH,'E',1,04BH,0FFH
1632   8EB7 43 2C 45 01 
1632   8EBB 4B FF       
1633   8EBD 5F 4C 44 20 	.DB '_LD C',2CH,'H',1,04CH,0FFH
1633   8EC1 43 2C 48 01 
1633   8EC5 4C FF       
1634   8EC7 5F 4C 44 20 	.DB '_LD C',2CH,'L',1,04DH,0FFH
1634   8ECB 43 2C 4C 01 
1634   8ECF 4D FF       
1635   8ED1 5F 4C 44 20 	.DB '_LD C',2CH,'#',1,00EH,0FFH
1635   8ED5 43 2C 23 01 
1635   8ED9 0E FF       
1636   8EDB 5F 4C 44 20 	.DB '_LD D',2CH,'(HL)',1,056H,0FFH
1636   8EDF 44 2C 28 48 
1636   8EE3 4C 29 01 56 
1636   8EE7 FF          
1637   8EE8 5F 4C 44 20 	.DB '_LD D',2CH,'A',1,057H,0FFH
1637   8EEC 44 2C 41 01 
1637   8EF0 57 FF       
1638   8EF2 5F 4C 44 20 	.DB '_LD D',2CH,'B',1,050H,0FFH
1638   8EF6 44 2C 42 01 
1638   8EFA 50 FF       
1639   8EFC 5F 4C 44 20 	.DB '_LD D',2CH,'C',1,051H,0FFH
1639   8F00 44 2C 43 01 
1639   8F04 51 FF       
1640   8F06 5F 4C 44 20 	.DB '_LD D',2CH,'D',1,052H,0FFH
1640   8F0A 44 2C 44 01 
1640   8F0E 52 FF       
1641   8F10 5F 4C 44 20 	.DB '_LD D',2CH,'E',1,053H,0FFH
1641   8F14 44 2C 45 01 
1641   8F18 53 FF       
1642   8F1A 5F 4C 44 20 	.DB '_LD D',2CH,'H',1,054H,0FFH
1642   8F1E 44 2C 48 01 
1642   8F22 54 FF       
1643   8F24 5F 4C 44 20 	.DB '_LD D',2CH,'L',1,055H,0FFH
1643   8F28 44 2C 4C 01 
1643   8F2C 55 FF       
1644   8F2E 5F 4C 44 20 	.DB '_LD D',2CH,'#',1,016H,0FFH
1644   8F32 44 2C 23 01 
1644   8F36 16 FF       
1645   8F38 5F 4C 44 20 	.DB '_LD DE',2CH,'$',1,011H,0FFH
1645   8F3C 44 45 2C 24 
1645   8F40 01 11 FF    
1646   8F43 5F 4C 44 20 	.DB '_LD E',2CH,'(HL)',1,05EH,0FFH
1646   8F47 45 2C 28 48 
1646   8F4B 4C 29 01 5E 
1646   8F4F FF          
1647   8F50 5F 4C 44 20 	.DB '_LD E',2CH,'A',1,05FH,0FFH
1647   8F54 45 2C 41 01 
1647   8F58 5F FF       
1648   8F5A 5F 4C 44 20 	.DB '_LD E',2CH,'B',1,058H,0FFH
1648   8F5E 45 2C 42 01 
1648   8F62 58 FF       
1649   8F64 5F 4C 44 20 	.DB '_LD E',2CH,'C',1,059H,0FFH
1649   8F68 45 2C 43 01 
1649   8F6C 59 FF       
1650   8F6E 5F 4C 44 20 	.DB '_LD E',2CH,'D',1,05AH,0FFH
1650   8F72 45 2C 44 01 
1650   8F76 5A FF       
1651   8F78 5F 4C 44 20 	.DB '_LD E',2CH,'E',1,05BH,0FFH
1651   8F7C 45 2C 45 01 
1651   8F80 5B FF       
1652   8F82 5F 4C 44 20 	.DB '_LD E',2CH,'H',1,05CH,0FFH
1652   8F86 45 2C 48 01 
1652   8F8A 5C FF       
1653   8F8C 5F 4C 44 20 	.DB '_LD E',2CH,'L',1,05DH,0FFH
1653   8F90 45 2C 4C 01 
1653   8F94 5D FF       
1654   8F96 5F 4C 44 20 	.DB '_LD E',2CH,'#',1,01EH,0FFH
1654   8F9A 45 2C 23 01 
1654   8F9E 1E FF       
1655   8FA0 5F 4C 44 20 	.DB '_LD H',2CH,'(HL)',1,066H,0FFH
1655   8FA4 48 2C 28 48 
1655   8FA8 4C 29 01 66 
1655   8FAC FF          
1656   8FAD 5F 4C 44 20 	.DB '_LD H',2CH,'A',1,067H,0FFH
1656   8FB1 48 2C 41 01 
1656   8FB5 67 FF       
1657   8FB7 5F 4C 44 20 	.DB '_LD H',2CH,'B',1,060H,0FFH
1657   8FBB 48 2C 42 01 
1657   8FBF 60 FF       
1658   8FC1 5F 4C 44 20 	.DB '_LD H',2CH,'C',1,061H,0FFH
1658   8FC5 48 2C 43 01 
1658   8FC9 61 FF       
1659   8FCB 5F 4C 44 20 	.DB '_LD H',2CH,'D',1,062H,0FFH
1659   8FCF 48 2C 44 01 
1659   8FD3 62 FF       
1660   8FD5 5F 4C 44 20 	.DB '_LD H',2CH,'E',1,063H,0FFH
1660   8FD9 48 2C 45 01 
1660   8FDD 63 FF       
1661   8FDF 5F 4C 44 20 	.DB '_LD H',2CH,'H',1,064H,0FFH
1661   8FE3 48 2C 48 01 
1661   8FE7 64 FF       
1662   8FE9 5F 4C 44 20 	.DB '_LD H',2CH,'L',1,065H,0FFH
1662   8FED 48 2C 4C 01 
1662   8FF1 65 FF       
1663   8FF3 5F 4C 44 20 	.DB '_LD H',2CH,'#',1,026H,0FFH
1663   8FF7 48 2C 23 01 
1663   8FFB 26 FF       
1664   8FFD 5F 4C 44 20 	.DB '_LD HL',2CH,'($)',1,02AH,0FFH
1664   9001 48 4C 2C 28 
1664   9005 24 29 01 2A 
1664   9009 FF          
1665   900A 5F 4C 44 20 	.DB '_LD HL',2CH,'$',1,021H,0FFH
1665   900E 48 4C 2C 24 
1665   9012 01 21 FF    
1666   9015 5F 4C 44 20 	.DB '_LD L',2CH,'(HL)',1,06EH,0FFH
1666   9019 4C 2C 28 48 
1666   901D 4C 29 01 6E 
1666   9021 FF          
1667   9022 5F 4C 44 20 	.DB '_LD L',2CH,'A',1,06FH,0FFH
1667   9026 4C 2C 41 01 
1667   902A 6F FF       
1668   902C 5F 4C 44 20 	.DB '_LD L',2CH,'B',1,068H,0FFH
1668   9030 4C 2C 42 01 
1668   9034 68 FF       
1669   9036 5F 4C 44 20 	.DB '_LD L',2CH,'C',1,069H,0FFH
1669   903A 4C 2C 43 01 
1669   903E 69 FF       
1670   9040 5F 4C 44 20 	.DB '_LD L',2CH,'D',1,06AH,0FFH
1670   9044 4C 2C 44 01 
1670   9048 6A FF       
1671   904A 5F 4C 44 20 	.DB '_LD L',2CH,'E',1,06BH,0FFH
1671   904E 4C 2C 45 01 
1671   9052 6B FF       
1672   9054 5F 4C 44 20 	.DB '_LD L',2CH,'H',1,06CH,0FFH
1672   9058 4C 2C 48 01 
1672   905C 6C FF       
1673   905E 5F 4C 44 20 	.DB '_LD L',2CH,'L',1,06DH,0FFH
1673   9062 4C 2C 4C 01 
1673   9066 6D FF       
1674   9068 5F 4C 44 20 	.DB '_LD L',2CH,'#',1,02EH,0FFH
1674   906C 4C 2C 23 01 
1674   9070 2E FF       
1675   9072 5F 4C 44 20 	.DB '_LD SP',2CH,'$',1,031H,0FFH
1675   9076 53 50 2C 24 
1675   907A 01 31 FF    
1676   907D 5F 4C 44 20 	.DB '_LD SP',2CH,'HL',1,0F9H,0FFH		
1676   9081 53 50 2C 48 
1676   9085 4C 01 F9 FF 
1677   9089             
1678   9089             
1679   9089             
1680   9089             	
1681   9089             
1682   9089 5F 4E 4F 50 	.DB '_NOP',1,000H,0FFH
1682   908D 01 00 FF    
1683   9090                
1684   9090 5F 4F 52 20 	.DB '_OR (HL)',1,0B6H,0FFH
1684   9094 28 48 4C 29 
1684   9098 01 B6 FF    
1685   909B             
1686   909B 5F 4F 52 20 	.DB '_OR A',1,0B7H,0FFH
1686   909F 41 01 B7 FF 
1687   90A3 5F 4F 52 20 	.DB '_OR B',1,0B0H,0FFH
1687   90A7 42 01 B0 FF 
1688   90AB 5F 4F 52 20 	.DB '_OR C',1,0B1H,0FFH
1688   90AF 43 01 B1 FF 
1689   90B3 5F 4F 52 20 	.DB '_OR D',1,0B2H,0FFH
1689   90B7 44 01 B2 FF 
1690   90BB 5F 4F 52 20 	.DB '_OR E',1,0B3H,0FFH
1690   90BF 45 01 B3 FF 
1691   90C3 5F 4F 52 20 	.DB '_OR H',1,0B4H,0FFH
1691   90C7 48 01 B4 FF 
1692   90CB 5F 4F 52 20 	.DB '_OR L',1,0B5H,0FFH
1692   90CF 4C 01 B5 FF 
1693   90D3 5F 4F 52 20 	.DB '_OR #',1,0F6H,0FFH
1693   90D7 23 01 F6 FF 
1694   90DB             	   
1695   90DB             
1696   90DB 5F 4F 55 54 	.DB '_OUT (#)',2CH,'A',1,0D3H,0FFH
1696   90DF 20 28 23 29 
1696   90E3 2C 41 01 D3 
1696   90E7 FF          
1697   90E8             	   
1698   90E8             	   
1699   90E8             
1700   90E8             	   
1701   90E8 5F 50 4F 50 	.DB '_POP AF',1,0F1H,0FFH
1701   90EC 20 41 46 01 
1701   90F0 F1 FF       
1702   90F2 5F 50 4F 50 	.DB '_POP BC',1,0C1H,0FFH
1702   90F6 20 42 43 01 
1702   90FA C1 FF       
1703   90FC 5F 50 4F 50 	.DB '_POP DE',1,0D1H,0FFH
1703   9100 20 44 45 01 
1703   9104 D1 FF       
1704   9106 5F 50 4F 50 	.DB '_POP HL',1,0E1H,0FFH
1704   910A 20 48 4C 01 
1704   910E E1 FF       
1705   9110             
1706   9110             	   
1707   9110 5F 50 55 53 	.DB '_PUSH AF',1,0F5H,0FFH
1707   9114 48 20 41 46 
1707   9118 01 F5 FF    
1708   911B 5F 50 55 53 	.DB '_PUSH BC',1,0C5H,0FFH
1708   911F 48 20 42 43 
1708   9123 01 C5 FF    
1709   9126 5F 50 55 53 	.DB '_PUSH DE',1,0D5H,0FFH
1709   912A 48 20 44 45 
1709   912E 01 D5 FF    
1710   9131 5F 50 55 53 	.DB '_PUSH HL',1,0E5H,0FFH
1710   9135 48 20 48 4C 
1710   9139 01 E5 FF    
1711   913C             
1712   913C             	   
1713   913C 5F 52 45 54 	.DB '_RET',1,0C9H,0FFH
1713   9140 01 C9 FF    
1714   9143 5F 52 45 54 	.DB '_RET C',1,0D8H,0FFH
1714   9147 20 43 01 D8 
1714   914B FF          
1715   914C 5F 52 45 54 	.DB '_RET M',1,0F8H,0FFH
1715   9150 20 4D 01 F8 
1715   9154 FF          
1716   9155 5F 52 45 54 	.DB '_RET NC',1,0D0H,0FFH
1716   9159 20 4E 43 01 
1716   915D D0 FF       
1717   915F 5F 52 45 54 	.DB '_RET NZ',1,0C0H,0FFH
1717   9163 20 4E 5A 01 
1717   9167 C0 FF       
1718   9169 5F 52 45 54 	.DB '_RET P',1,0F0H,0FFH
1718   916D 20 50 01 F0 
1718   9171 FF          
1719   9172 5F 52 45 54 	.DB '_RET PE',1,0E8H,0FFH
1719   9176 20 50 45 01 
1719   917A E8 FF       
1720   917C 5F 52 45 54 	.DB '_RET PO',1,0E0H,0FFH
1720   9180 20 50 4F 01 
1720   9184 E0 FF       
1721   9186 5F 52 45 54 	.DB '_RET Z',1,0C8H,0FFH
1721   918A 20 5A 01 C8 
1721   918E FF          
1722   918F             
1723   918F 5F 52 4C 41 	.DB '_RLA',1,017H,0FFH
1723   9193 01 17 FF    
1724   9196             	   
1725   9196             
1726   9196             	   
1727   9196             
1728   9196 5F 52 4C 43 	.DB '_RLCA',1,007H,0FFH
1728   919A 41 01 07 FF 
1729   919E 5F 52 52 41 	.DB '_RRA',1,01FH,0FFH
1729   91A2 01 1F FF    
1730   91A5             
1731   91A5 5F 52 52 43 	.DB '_RRCA',1,00FH,0FFH
1731   91A9 41 01 0F FF 
1732   91AD             
1733   91AD                
1734   91AD 5F 52 53 54 	.DB '_RST 00',1,0C7H,0FFH
1734   91B1 20 30 30 01 
1734   91B5 C7 FF       
1735   91B7 5F 52 53 54 	.DB '_RST 08',1,0CFH,0FFH
1735   91BB 20 30 38 01 
1735   91BF CF FF       
1736   91C1 5F 52 53 54 	.DB '_RST 10',1,0D7H,0FFH
1736   91C5 20 31 30 01 
1736   91C9 D7 FF       
1737   91CB 5F 52 53 54 	.DB '_RST 18',1,0DFH,0FFH
1737   91CF 20 31 38 01 
1737   91D3 DF FF       
1738   91D5 5F 52 53 54 	.DB '_RST 20',1,0E7H,0FFH
1738   91D9 20 32 30 01 
1738   91DD E7 FF       
1739   91DF 5F 52 53 54 	.DB '_RST 28',1,0EFH,0FFH
1739   91E3 20 32 38 01 
1739   91E7 EF FF       
1740   91E9 5F 52 53 54 	.DB '_RST 30',1,0F7H,0FFH
1740   91ED 20 33 30 01 
1740   91F1 F7 FF       
1741   91F3 5F 52 53 54 	.DB '_RST 38',1,0FFH,0FFH
1741   91F7 20 33 38 01 
1741   91FB FF FF       
1742   91FD             	   
1743   91FD 5F 53 42 43 	.DB '_SBC A',2CH,'(HL)',1,09EH,0FFH
1743   9201 20 41 2C 28 
1743   9205 48 4C 29 01 
1743   9209 9E FF       
1744   920B             
1745   920B 5F 53 42 43 	.DB '_SBC A',2CH,'A',1,09FH,0FFH
1745   920F 20 41 2C 41 
1745   9213 01 9F FF    
1746   9216 5F 53 42 43 	.DB '_SBC A',2CH,'B',1,098H,0FFH
1746   921A 20 41 2C 42 
1746   921E 01 98 FF    
1747   9221 5F 53 42 43 	.DB '_SBC A',2CH,'C',1,099H,0FFH
1747   9225 20 41 2C 43 
1747   9229 01 99 FF    
1748   922C 5F 53 42 43 	.DB '_SBC A',2CH,'D',1,09AH,0FFH
1748   9230 20 41 2C 44 
1748   9234 01 9A FF    
1749   9237 5F 53 42 43 	.DB '_SBC A',2CH,'E',1,09BH,0FFH
1749   923B 20 41 2C 45 
1749   923F 01 9B FF    
1750   9242 5F 53 42 43 	.DB '_SBC A',2CH,'H',1,09CH,0FFH
1750   9246 20 41 2C 48 
1750   924A 01 9C FF    
1751   924D 5F 53 42 43 	.DB '_SBC A',2CH,'L',1,09DH,0FFH
1751   9251 20 41 2C 4C 
1751   9255 01 9D FF    
1752   9258             
1753   9258 5F 53 42 43 	.DB '_SBC A',2CH,'#',1,0DEH,0FFH
1753   925C 20 41 2C 23 
1753   9260 01 DE FF    
1754   9263             	
1755   9263 5F 53 43 46 	.DB '_SCF',1,037H,0FFH
1755   9267 01 37 FF    
1756   926A             	   
1757   926A             
1758   926A             	   	   
1759   926A             
1760   926A                
1761   926A 5F 53 55 42 	.DB '_SUB (HL)',1,096H,0FFH
1761   926E 20 28 48 4C 
1761   9272 29 01 96 FF 
1762   9276             
1763   9276 5F 53 55 42 	.DB '_SUB A',1,097H,0FFH
1763   927A 20 41 01 97 
1763   927E FF          
1764   927F 5F 53 55 42 	.DB '_SUB B',1,090H,0FFH
1764   9283 20 42 01 90 
1764   9287 FF          
1765   9288 5F 53 55 42 	.DB '_SUB C',1,091H,0FFH
1765   928C 20 43 01 91 
1765   9290 FF          
1766   9291 5F 53 55 42 	.DB '_SUB D',1,092H,0FFH
1766   9295 20 44 01 92 
1766   9299 FF          
1767   929A 5F 53 55 42 	.DB '_SUB E',1,093H,0FFH
1767   929E 20 45 01 93 
1767   92A2 FF          
1768   92A3 5F 53 55 42 	.DB '_SUB H',1,094H,0FFH
1768   92A7 20 48 01 94 
1768   92AB FF          
1769   92AC 5F 53 55 42 	.DB '_SUB L',1,095H,0FFH
1769   92B0 20 4C 01 95 
1769   92B4 FF          
1770   92B5 5F 53 55 42 	.DB '_SUB #',1,0D6H,0FFH
1770   92B9 20 23 01 D6 
1770   92BD FF          
1771   92BE             	   
1772   92BE             	   
1773   92BE 5F 58 4F 52 	.DB '_XOR (HL)',1,0AEH,0FFH
1773   92C2 20 28 48 4C 
1773   92C6 29 01 AE FF 
1774   92CA             
1775   92CA 5F 58 4F 52 	.DB '_XOR A',1,0AFH,0FFH
1775   92CE 20 41 01 AF 
1775   92D2 FF          
1776   92D3 5F 58 4F 52 	.DB '_XOR B',1,0A8H,0FFH
1776   92D7 20 42 01 A8 
1776   92DB FF          
1777   92DC 5F 58 4F 52 	.DB '_XOR C',1,0A9H,0FFH
1777   92E0 20 43 01 A9 
1777   92E4 FF          
1778   92E5 5F 58 4F 52 	.DB '_XOR D',1,0AAH,0FFH
1778   92E9 20 44 01 AA 
1778   92ED FF          
1779   92EE 5F 58 4F 52 	.DB '_XOR E',1,0ABH,0FFH
1779   92F2 20 45 01 AB 
1779   92F6 FF          
1780   92F7 5F 58 4F 52 	.DB '_XOR H',1,0ACH,0FFH
1780   92FB 20 48 01 AC 
1780   92FF FF          
1781   9300 5F 58 4F 52 	.DB '_XOR L',1,0ADH,0FFH
1781   9304 20 4C 01 AD 
1781   9308 FF          
1782   9309 5F 58 4F 52 	.DB '_XOR #',1,0EEH,0FFH
1782   930D 20 23 01 EE 
1782   9311 FF          
1783   9312             	
1784   9312             AFTERCOD:
1785   9312 5F 41 44 43 	.DB '_ADC A',2CH,'(IX+#)',2,0DDH,08EH
1785   9316 20 41 2C 28 
1785   931A 49 58 2B 23 
1785   931E 29 02 DD 8E 
1786   9322 5F 41 44 43 	.DB '_ADC A',2CH,'(IY+#)',2,0FDH,08EH
1786   9326 20 41 2C 28 
1786   932A 49 59 2B 23 
1786   932E 29 02 FD 8E 
1787   9332 5F 41 44 43 	.DB '_ADC HL',2CH,'BC',2,0EDH,04AH
1787   9336 20 48 4C 2C 
1787   933A 42 43 02 ED 
1787   933E 4A          
1788   933F 5F 41 44 43 	.DB '_ADC HL',2CH,'DE',2,0EDH,05AH
1788   9343 20 48 4C 2C 
1788   9347 44 45 02 ED 
1788   934B 5A          
1789   934C 5F 41 44 43 	.DB '_ADC HL',2CH,'HL',2,0EDH,06AH
1789   9350 20 48 4C 2C 
1789   9354 48 4C 02 ED 
1789   9358 6A          
1790   9359 5F 41 44 43 	.DB '_ADC HL',2CH,'SP',2,0EDH,07AH
1790   935D 20 48 4C 2C 
1790   9361 53 50 02 ED 
1790   9365 7A          
1791   9366 5F 41 44 44 	.DB '_ADD A',2CH,'(IX+#)',2,0DDH,086H
1791   936A 20 41 2C 28 
1791   936E 49 58 2B 23 
1791   9372 29 02 DD 86 
1792   9376 5F 41 44 44 	.DB '_ADD A',2CH,'(IY+#)',2,0FDH,086H
1792   937A 20 41 2C 28 
1792   937E 49 59 2B 23 
1792   9382 29 02 FD 86 
1793   9386 5F 41 44 44 	.DB '_ADD IX',2CH,'BC',2,0DDH,009H
1793   938A 20 49 58 2C 
1793   938E 42 43 02 DD 
1793   9392 09          
1794   9393 5F 41 44 44 	.DB '_ADD IX',2CH,'DE',2,0DDH,019H
1794   9397 20 49 58 2C 
1794   939B 44 45 02 DD 
1794   939F 19          
1795   93A0 5F 41 44 44 	.DB '_ADD IX',2CH,'IX',2,0DDH,029H
1795   93A4 20 49 58 2C 
1795   93A8 49 58 02 DD 
1795   93AC 29          
1796   93AD 5F 41 44 44 	.DB '_ADD IX',2CH,'SP',2,0DDH,039H
1796   93B1 20 49 58 2C 
1796   93B5 53 50 02 DD 
1796   93B9 39          
1797   93BA 5F 41 44 44 	.DB '_ADD IY',2CH,'BC',2,0FDH,009H
1797   93BE 20 49 59 2C 
1797   93C2 42 43 02 FD 
1797   93C6 09          
1798   93C7 5F 41 44 44 	.DB '_ADD IY',2CH,'DE',2,0FDH,019H
1798   93CB 20 49 59 2C 
1798   93CF 44 45 02 FD 
1798   93D3 19          
1799   93D4 5F 41 44 44 	.DB '_ADD IY',2CH,'IY',2,0FDH,029H
1799   93D8 20 49 59 2C 
1799   93DC 49 59 02 FD 
1799   93E0 29          
1800   93E1 5F 41 44 44 	.DB '_ADD IY',2CH,'SP',2,0FDH,039H
1800   93E5 20 49 59 2C 
1800   93E9 53 50 02 FD 
1800   93ED 39          
1801   93EE 5F 41 4E 44 	.DB '_AND (IX+#)',2,0DDH,0A6H
1801   93F2 20 28 49 58 
1801   93F6 2B 23 29 02 
1801   93FA DD A6       
1802   93FC 5F 41 4E 44 	.DB '_AND (IY+#)',2,0FDH,0A6H
1802   9400 20 28 49 59 
1802   9404 2B 23 29 02 
1802   9408 FD A6       
1803   940A 5F 42 49 54 	.DB '_BIT #',2CH,'(HL)',2,0CBH,046H
1803   940E 20 23 2C 28 
1803   9412 48 4C 29 02 
1803   9416 CB 46       
1804   9418 5F 42 49 54 	.DB '_BIT #',2CH,'A',2,0CBH,047H
1804   941C 20 23 2C 41 
1804   9420 02 CB 47    
1805   9423 5F 42 49 54 	.DB '_BIT #',2CH,'B',2,0CBH,040H
1805   9427 20 23 2C 42 
1805   942B 02 CB 40    
1806   942E 5F 42 49 54 	.DB '_BIT #',2CH,'C',2,0CBH,041H
1806   9432 20 23 2C 43 
1806   9436 02 CB 41    
1807   9439 5F 42 49 54 	.DB '_BIT #',2CH,'D',2,0CBH,042H
1807   943D 20 23 2C 44 
1807   9441 02 CB 42    
1808   9444 5F 42 49 54 	.DB '_BIT #',2CH,'E',2,0CBH,043H
1808   9448 20 23 2C 45 
1808   944C 02 CB 43    
1809   944F 5F 42 49 54 	.DB '_BIT #',2CH,'H',2,0CBH,044H
1809   9453 20 23 2C 48 
1809   9457 02 CB 44    
1810   945A 5F 42 49 54 	.DB '_BIT #',2CH,'L',2,0CBH,045H
1810   945E 20 23 2C 4C 
1810   9462 02 CB 45    
1811   9465 5F 43 50 20 	.DB '_CP (IX+#)',2,0DDH,0BEH
1811   9469 28 49 58 2B 
1811   946D 23 29 02 DD 
1811   9471 BE          
1812   9472 5F 43 50 20 	.DB '_CP (IY+#)',2,0FDH,0BEH
1812   9476 28 49 59 2B 
1812   947A 23 29 02 FD 
1812   947E BE          
1813   947F 5F 43 50 44 	.DB '_CPD',2,0EDH,0A9H	;BASLANGICI BENZER KOMUTLARDA TABLODA ONCE KISA OLAN OLMALI
1813   9483 02 ED A9    
1814   9486 5F 43 50 44 	.DB '_CPDR',2,0EDH,0B9H
1814   948A 52 02 ED B9 
1815   948E 5F 43 50 49 	.DB '_CPI',2,0EDH,0A1H
1815   9492 02 ED A1    
1816   9495 5F 43 50 49 	.DB '_CPIR',2,0EDH,0B1H
1816   9499 52 02 ED B1 
1817   949D 5F 44 45 43 	.DB '_DEC (IX+#)',2,0DDH,035H
1817   94A1 20 28 49 58 
1817   94A5 2B 23 29 02 
1817   94A9 DD 35       
1818   94AB 5F 44 45 43 	.DB '_DEC (IY+#)',2,0FDH,035H
1818   94AF 20 28 49 59 
1818   94B3 2B 23 29 02 
1818   94B7 FD 35       
1819   94B9 5F 44 45 43 	.DB '_DEC IX',2,0DDH,02BH
1819   94BD 20 49 58 02 
1819   94C1 DD 2B       
1820   94C3 5F 44 45 43 	.DB '_DEC IY',2,0FDH,02BH
1820   94C7 20 49 59 02 
1820   94CB FD 2B       
1821   94CD             
1822   94CD 5F 45 58 20 	.DB '_EX (SP)',2CH,'IX',2,0DDH,0E3H
1822   94D1 28 53 50 29 
1822   94D5 2C 49 58 02 
1822   94D9 DD E3       
1823   94DB 5F 45 58 20 	.DB '_EX (SP)',2CH,'IY',2,0FDH,0E3H
1823   94DF 28 53 50 29 
1823   94E3 2C 49 59 02 
1823   94E7 FD E3       
1824   94E9             
1825   94E9 5F 49 4D 30 	.DB '_IM0',2,0EDH,046H
1825   94ED 02 ED 46    
1826   94F0 5F 49 4D 31 	.DB '_IM1',2,0EDH,056H
1826   94F4 02 ED 56    
1827   94F7 5F 49 4D 32 	.DB '_IM2',2,0EDH,05EH
1827   94FB 02 ED 5E    
1828   94FE 5F 49 4E 20 	.DB '_IN A',2CH,'(C)',2,0EDH,078H
1828   9502 41 2C 28 43 
1828   9506 29 02 ED 78 
1829   950A 5F 49 4E 20 	.DB '_IN B',2CH,'(C)',2,0EDH,040H
1829   950E 42 2C 28 43 
1829   9512 29 02 ED 40 
1830   9516 5F 49 4E 20 	.DB '_IN C',2CH,'(C)',2,0EDH,048H
1830   951A 43 2C 28 43 
1830   951E 29 02 ED 48 
1831   9522 5F 49 4E 20 	.DB '_IN D',2CH,'(C)',2,0EDH,050H
1831   9526 44 2C 28 43 
1831   952A 29 02 ED 50 
1832   952E 5F 49 4E 20 	.DB '_IN E',2CH,'(C)',2,0EDH,058H
1832   9532 45 2C 28 43 
1832   9536 29 02 ED 58 
1833   953A 5F 49 4E 20 	.DB '_IN H',2CH,'(C)',2,0EDH,060H
1833   953E 48 2C 28 43 
1833   9542 29 02 ED 60 
1834   9546 5F 49 4E 20 	.DB '_IN L',2CH,'(C)',2,0EDH,068H
1834   954A 4C 2C 28 43 
1834   954E 29 02 ED 68 
1835   9552 5F 49 4E 43 	.DB '_INC (IX+#)',2,0DDH,034H
1835   9556 20 28 49 58 
1835   955A 2B 23 29 02 
1835   955E DD 34       
1836   9560 5F 49 4E 43 	.DB '_INC (IY+#)',2,0FDH,034H
1836   9564 20 28 49 59 
1836   9568 2B 23 29 02 
1836   956C FD 34       
1837   956E 5F 49 4E 44 	.DB '_IND',2,0EDH,0AAH
1837   9572 02 ED AA    
1838   9575 5F 49 4E 44 	.DB '_INDR',2,0EDH,0BAH
1838   9579 52 02 ED BA 
1839   957D 5F 49 4E 49 	.DB '_INI',2,0EDH,0A2H
1839   9581 02 ED A2    
1840   9584 5F 49 4E 49 	.DB '_INIR',2,0EDH,0B2H
1840   9588 52 02 ED B2 
1841   958C 5F 49 4E 43 	.DB '_INC IX',2,0DDH,023H
1841   9590 20 49 58 02 
1841   9594 DD 23       
1842   9596 5F 49 4E 43 	.DB '_INC IY',2,0FDH,023H
1842   959A 20 49 59 02 
1842   959E FD 23       
1843   95A0 5F 4A 50 20 	.DB '_JP (IX+#)',2,0DDH,0E9H
1843   95A4 28 49 58 2B 
1843   95A8 23 29 02 DD 
1843   95AC E9          
1844   95AD 5F 4A 50 20 	.DB '_JP (IY+#)',2,0FDH,0E9H
1844   95B1 28 49 59 2B 
1844   95B5 23 29 02 FD 
1844   95B9 E9          
1845   95BA 5F 4C 44 20 	.DB '_LD (IX+#)',2CH,'A',2,0DDH,077H
1845   95BE 28 49 58 2B 
1845   95C2 23 29 2C 41 
1845   95C6 02 DD 77    
1846   95C9 5F 4C 44 20 	.DB '_LD (IX+#)',2CH,'B',2,0DDH,070H
1846   95CD 28 49 58 2B 
1846   95D1 23 29 2C 42 
1846   95D5 02 DD 70    
1847   95D8 5F 4C 44 20 	.DB '_LD (IX+#)',2CH,'C',2,0DDH,071H
1847   95DC 28 49 58 2B 
1847   95E0 23 29 2C 43 
1847   95E4 02 DD 71    
1848   95E7 5F 4C 44 20 	.DB '_LD (IX+#)',2CH,'D',2,0DDH,072H
1848   95EB 28 49 58 2B 
1848   95EF 23 29 2C 44 
1848   95F3 02 DD 72    
1849   95F6 5F 4C 44 20 	.DB '_LD (IX+#)',2CH,'E',2,0DDH,073H
1849   95FA 28 49 58 2B 
1849   95FE 23 29 2C 45 
1849   9602 02 DD 73    
1850   9605 5F 4C 44 20 	.DB '_LD (IX+#)',2CH,'H',2,0DDH,074H
1850   9609 28 49 58 2B 
1850   960D 23 29 2C 48 
1850   9611 02 DD 74    
1851   9614 5F 4C 44 20 	.DB '_LD (IX+#)',2CH,'L',2,0DDH,075H
1851   9618 28 49 58 2B 
1851   961C 23 29 2C 4C 
1851   9620 02 DD 75    
1852   9623 5F 4C 44 20 	.DB '_LD (IY+#)',2CH,'A',2,0FDH,077H
1852   9627 28 49 59 2B 
1852   962B 23 29 2C 41 
1852   962F 02 FD 77    
1853   9632 5F 4C 44 20 	.DB '_LD (IY+#)',2CH,'B',2,0FDH,070H
1853   9636 28 49 59 2B 
1853   963A 23 29 2C 42 
1853   963E 02 FD 70    
1854   9641 5F 4C 44 20 	.DB '_LD (IY+#)',2CH,'C',2,0FDH,071H
1854   9645 28 49 59 2B 
1854   9649 23 29 2C 43 
1854   964D 02 FD 71    
1855   9650 5F 4C 44 20 	.DB '_LD (IY+#)',2CH,'D',2,0FDH,072H
1855   9654 28 49 59 2B 
1855   9658 23 29 2C 44 
1855   965C 02 FD 72    
1856   965F 5F 4C 44 20 	.DB '_LD (IY+#)',2CH,'E',2,0FDH,073H
1856   9663 28 49 59 2B 
1856   9667 23 29 2C 45 
1856   966B 02 FD 73    
1857   966E 5F 4C 44 20 	.DB '_LD (IY+#)',2CH,'H',2,0FDH,074H
1857   9672 28 49 59 2B 
1857   9676 23 29 2C 48 
1857   967A 02 FD 74    
1858   967D 5F 4C 44 20 	.DB '_LD (IY+#)',2CH,'L',2,0FDH,075H
1858   9681 28 49 59 2B 
1858   9685 23 29 2C 4C 
1858   9689 02 FD 75    
1859   968C 5F 4C 44 20 	.DB '_LD ($)',2CH,'BC',2,0EDH,043H
1859   9690 28 24 29 2C 
1859   9694 42 43 02 ED 
1859   9698 43          
1860   9699 5F 4C 44 20 	.DB '_LD ($)',2CH,'DE',2,0EDH,053H
1860   969D 28 24 29 2C 
1860   96A1 44 45 02 ED 
1860   96A5 53          
1861   96A6 5F 4C 44 20 	.DB '_LD ($)',2CH,'IX',2,0DDH,022H
1861   96AA 28 24 29 2C 
1861   96AE 49 58 02 DD 
1861   96B2 22          
1862   96B3 5F 4C 44 20 	.DB '_LD ($)',2CH,'IY',2,0FDH,022H
1862   96B7 28 24 29 2C 
1862   96BB 49 59 02 FD 
1862   96BF 22          
1863   96C0 5F 4C 44 20 	.DB '_LD ($)',2CH,'SP',2,0EDH,073H
1863   96C4 28 24 29 2C 
1863   96C8 53 50 02 ED 
1863   96CC 73          
1864   96CD 5F 4C 44 20 	.DB '_LD A',2CH,'(IX+#)',2,0DDH,07EH
1864   96D1 41 2C 28 49 
1864   96D5 58 2B 23 29 
1864   96D9 02 DD 7E    
1865   96DC 5F 4C 44 20 	.DB '_LD A',2CH,'(IY+#)',2,0FDH,07EH
1865   96E0 41 2C 28 49 
1865   96E4 59 2B 23 29 
1865   96E8 02 FD 7E    
1866   96EB 5F 4C 44 20 	.DB '_LD A',2CH,'I',2,0EDH,057H
1866   96EF 41 2C 49 02 
1866   96F3 ED 57       
1867   96F5 5F 4C 44 20 	.DB '_LD A',2CH,'R',2,0EDH,05FH
1867   96F9 41 2C 52 02 
1867   96FD ED 5F       
1868   96FF 5F 4C 44 20 	.DB '_LD B',2CH,'(IX+#)',2,0DDH,046H
1868   9703 42 2C 28 49 
1868   9707 58 2B 23 29 
1868   970B 02 DD 46    
1869   970E 5F 4C 44 20 	.DB '_LD B',2CH,'(IY+#)',2,0FDH,046H
1869   9712 42 2C 28 49 
1869   9716 59 2B 23 29 
1869   971A 02 FD 46    
1870   971D 5F 4C 44 20 	.DB '_LD BC',2CH,'($)',2,0EDH,04BH
1870   9721 42 43 2C 28 
1870   9725 24 29 02 ED 
1870   9729 4B          
1871   972A 5F 4C 44 20 	.DB '_LD C',2CH,'(IX+#)',2,0DDH,04EH
1871   972E 43 2C 28 49 
1871   9732 58 2B 23 29 
1871   9736 02 DD 4E    
1872   9739 5F 4C 44 20 	.DB '_LD C',2CH,'(IY+#)',2,0FDH,04EH
1872   973D 43 2C 28 49 
1872   9741 59 2B 23 29 
1872   9745 02 FD 4E    
1873   9748 5F 4C 44 20 	.DB '_LD D',2CH,'(IX+#)',2,0DDH,056H
1873   974C 44 2C 28 49 
1873   9750 58 2B 23 29 
1873   9754 02 DD 56    
1874   9757 5F 4C 44 20 	.DB '_LD D',2CH,'(IY+#)',2,0FDH,056H
1874   975B 44 2C 28 49 
1874   975F 59 2B 23 29 
1874   9763 02 FD 56    
1875   9766 5F 4C 44 20 	.DB '_LD DE',2CH,'($)',2,0EDH,05BH
1875   976A 44 45 2C 28 
1875   976E 24 29 02 ED 
1875   9772 5B          
1876   9773 5F 4C 44 20 	.DB '_LD E',2CH,'(IX+#)',2,0DDH,05EH
1876   9777 45 2C 28 49 
1876   977B 58 2B 23 29 
1876   977F 02 DD 5E    
1877   9782 5F 4C 44 20 	.DB '_LD E',2CH,'(IY+#)',2,0FDH,05EH
1877   9786 45 2C 28 49 
1877   978A 59 2B 23 29 
1877   978E 02 FD 5E    
1878   9791 5F 4C 44 20 	.DB '_LD H',2CH,'(IX+#)',2,0DDH,066H
1878   9795 48 2C 28 49 
1878   9799 58 2B 23 29 
1878   979D 02 DD 66    
1879   97A0 5F 4C 44 20 	.DB '_LD H',2CH,'(IY+#)',2,0FDH,066H
1879   97A4 48 2C 28 49 
1879   97A8 59 2B 23 29 
1879   97AC 02 FD 66    
1880   97AF 5F 4C 44 20 	.DB '_LD I',2CH,'A',2,0EDH,047H
1880   97B3 49 2C 41 02 
1880   97B7 ED 47       
1881   97B9 5F 4C 44 20 	.DB '_LD IX',2CH,'($)',2,0DDH,02AH
1881   97BD 49 58 2C 28 
1881   97C1 24 29 02 DD 
1881   97C5 2A          
1882   97C6 5F 4C 44 20 	.DB '_LD IX',2CH,'$',2,0DDH,021H
1882   97CA 49 58 2C 24 
1882   97CE 02 DD 21    
1883   97D1 5F 4C 44 20 	.DB '_LD IY',2CH,'($)',2,0FDH,02AH
1883   97D5 49 59 2C 28 
1883   97D9 24 29 02 FD 
1883   97DD 2A          
1884   97DE 5F 4C 44 20 	.DB '_LD IY',2CH,'$',2,0FDH,021H
1884   97E2 49 59 2C 24 
1884   97E6 02 FD 21    
1885   97E9 5F 4C 44 20 	.DB '_LD L',2CH,'(IX+#)',2,0DDH,06EH
1885   97ED 4C 2C 28 49 
1885   97F1 58 2B 23 29 
1885   97F5 02 DD 6E    
1886   97F8 5F 4C 44 20 	.DB '_LD L',2CH,'(IY+#)',2,0FDH,06EH
1886   97FC 4C 2C 28 49 
1886   9800 59 2B 23 29 
1886   9804 02 FD 6E    
1887   9807 5F 4C 44 20 	.DB '_LD R',2CH,'A',2,0EDH,04FH
1887   980B 52 2C 41 02 
1887   980F ED 4F       
1888   9811 5F 4C 44 20 	.DB '_LD SP',2CH,'($)',2,0EDH,07BH
1888   9815 53 50 2C 28 
1888   9819 24 29 02 ED 
1888   981D 7B          
1889   981E 5F 4C 44 20 	.DB '_LD SP',2CH,'IX',2,0DDH,0F9H
1889   9822 53 50 2C 49 
1889   9826 58 02 DD F9 
1890   982A 5F 4C 44 20 	.DB '_LD SP',2CH,'IY',2,0FDH,0F9H
1890   982E 53 50 2C 49 
1890   9832 59 02 FD F9 
1891   9836 5F 4C 44 44 	.DB '_LDD',2,0EDH,0A8H
1891   983A 02 ED A8    
1892   983D 5F 4C 44 44 	.DB '_LDDR',2,0EDH,0B8H
1892   9841 52 02 ED B8 
1893   9845 5F 4C 44 49 	.DB '_LDI',2,0EDH,0A0H
1893   9849 02 ED A0    
1894   984C 5F 4C 44 49 	.DB '_LDIR',2,0EDH,0B0H
1894   9850 52 02 ED B0 
1895   9854 5F 4E 45 47 	.DB '_NEG',2,0EDH,044H
1895   9858 02 ED 44    
1896   985B 5F 4F 52 20 	.DB '_OR (IX+#)',2,0DDH,0B6H
1896   985F 28 49 58 2B 
1896   9863 23 29 02 DD 
1896   9867 B6          
1897   9868 5F 4F 52 20 	.DB '_OR (IY+#)',2,0FDH,0B6H
1897   986C 28 49 59 2B 
1897   9870 23 29 02 FD 
1897   9874 B6          
1898   9875 5F 4F 54 44 	.DB '_OTDR',2,0EDH,0BBH
1898   9879 52 02 ED BB 
1899   987D 5F 4F 54 49 	.DB '_OTIR',2,0EDH,0B3H
1899   9881 52 02 ED B3 
1900   9885             	   
1901   9885 5F 4F 55 54 	.DB '_OUT (C)',2CH,'A',2,0EDH,079H
1901   9889 20 28 43 29 
1901   988D 2C 41 02 ED 
1901   9891 79          
1902   9892 5F 4F 55 54 	.DB '_OUT (C)',2CH,'B',2,0EDH,041H
1902   9896 20 28 43 29 
1902   989A 2C 42 02 ED 
1902   989E 41          
1903   989F 5F 4F 55 54 	.DB '_OUT (C)',2CH,'C',2,0EDH,049H
1903   98A3 20 28 43 29 
1903   98A7 2C 43 02 ED 
1903   98AB 49          
1904   98AC 5F 4F 55 54 	.DB '_OUT (C)',2CH,'D',2,0EDH,051H
1904   98B0 20 28 43 29 
1904   98B4 2C 44 02 ED 
1904   98B8 51          
1905   98B9 5F 4F 55 54 	.DB '_OUT (C)',2CH,'E',2,0EDH,059H
1905   98BD 20 28 43 29 
1905   98C1 2C 45 02 ED 
1905   98C5 59          
1906   98C6 5F 4F 55 54 	.DB '_OUT (C)',2CH,'H',2,0EDH,061H
1906   98CA 20 28 43 29 
1906   98CE 2C 48 02 ED 
1906   98D2 61          
1907   98D3 5F 4F 55 54 	.DB '_OUT (C)',2CH,'L',2,0EDH,069H
1907   98D7 20 28 43 29 
1907   98DB 2C 4C 02 ED 
1907   98DF 69          
1908   98E0 5F 4F 55 54 	.DB '_OUTD',2,0EDH,0ABH
1908   98E4 44 02 ED AB 
1909   98E8 5F 4F 55 54 	.DB '_OUTI',2,0EDH,0A3H
1909   98EC 49 02 ED A3 
1910   98F0 5F 50 4F 50 	.DB '_POP IX',2,0DDH,0E1H
1910   98F4 20 49 58 02 
1910   98F8 DD E1       
1911   98FA 5F 50 4F 50 	.DB '_POP IY',2,0FDH,0E1H
1911   98FE 20 49 59 02 
1911   9902 FD E1       
1912   9904 5F 50 55 53 	.DB '_PUSH IX',2,0DDH,0E5H
1912   9908 48 20 49 58 
1912   990C 02 DD E5    
1913   990F 5F 50 55 53 	.DB '_PUSH IY',2,0FDH,0E5H
1913   9913 48 20 49 59 
1913   9917 02 FD E5    
1914   991A             	   
1915   991A 5F 52 45 53 	.DB '_RES #',2CH,'(HL)',2,0CBH,086H
1915   991E 20 23 2C 28 
1915   9922 48 4C 29 02 
1915   9926 CB 86       
1916   9928 5F 52 45 53 	.DB '_RES #',2CH,'(IX+#)',2,0DDH,0CBH
1916   992C 20 23 2C 28 
1916   9930 49 58 2B 23 
1916   9934 29 02 DD CB 
1917   9938 5F 52 45 53 	.DB '_RES #',2CH,'(IY+#)',2,0FDH,0CBH
1917   993C 20 23 2C 28 
1917   9940 49 59 2B 23 
1917   9944 29 02 FD CB 
1918   9948 5F 52 45 53 	.DB '_RES #',2CH,'A',2,0CBH,087H
1918   994C 20 23 2C 41 
1918   9950 02 CB 87    
1919   9953 5F 52 45 53 	.DB '_RES #',2CH,'B',2,0CBH,080H
1919   9957 20 23 2C 42 
1919   995B 02 CB 80    
1920   995E 5F 52 45 53 	.DB '_RES #',2CH,'C',2,0CBH,081H
1920   9962 20 23 2C 43 
1920   9966 02 CB 81    
1921   9969 5F 52 45 53 	.DB '_RES #',2CH,'D',2,0CBH,082H
1921   996D 20 23 2C 44 
1921   9971 02 CB 82    
1922   9974 5F 52 45 53 	.DB '_RES #',2CH,'E',2,0CBH,083H
1922   9978 20 23 2C 45 
1922   997C 02 CB 83    
1923   997F 5F 52 45 53 	.DB '_RES #',2CH,'H',2,0CBH,084H
1923   9983 20 23 2C 48 
1923   9987 02 CB 84    
1924   998A 5F 52 45 53 	.DB '_RES #',2CH,'L',2,0CBH,085H
1924   998E 20 23 2C 4C 
1924   9992 02 CB 85    
1925   9995 5F 52 45 54 	.DB '_RETI',2,0EDH,04DH
1925   9999 49 02 ED 4D 
1926   999D 5F 52 45 54 	.DB '_RETN',2,0EDH,045H
1926   99A1 4E 02 ED 45 
1927   99A5             	   
1928   99A5 5F 52 4C 20 	.DB '_RL (HL)',2,0CBH,016H
1928   99A9 28 48 4C 29 
1928   99AD 02 CB 16    
1929   99B0 5F 52 4C 20 	.DB '_RL (IX+#)',2,0DDH,0CBH
1929   99B4 28 49 58 2B 
1929   99B8 23 29 02 DD 
1929   99BC CB          
1930   99BD 5F 52 4C 20 	.DB '_RL (IY+#)',2,0FDH,0CBH
1930   99C1 28 49 59 2B 
1930   99C5 23 29 02 FD 
1930   99C9 CB          
1931   99CA 5F 52 4C 20 	.DB '_RL A',2,0CBH,017H
1931   99CE 41 02 CB 17 
1932   99D2 5F 52 4C 20 	.DB '_RL B',2,0CBH,010H
1932   99D6 42 02 CB 10 
1933   99DA 5F 52 4C 20 	.DB '_RL C',2,0CBH,011H
1933   99DE 43 02 CB 11 
1934   99E2 5F 52 4C 20 	.DB '_RL D',2,0CBH,012H
1934   99E6 44 02 CB 12 
1935   99EA 5F 52 4C 20 	.DB '_RL E',2,0CBH,013H
1935   99EE 45 02 CB 13 
1936   99F2 5F 52 4C 20 	.DB '_RL H',2,0CBH,014H
1936   99F6 48 02 CB 14 
1937   99FA 5F 52 4C 20 	.DB '_RL L',2,0CBH,015H
1937   99FE 4C 02 CB 15 
1938   9A02 5F 52 4C 43 	.DB '_RLC (HL)',2,0CBH,006H
1938   9A06 20 28 48 4C 
1938   9A0A 29 02 CB 06 
1939   9A0E 5F 52 4C 43 	.DB '_RLC (IX+#)',2,0DDH,0CBH
1939   9A12 20 28 49 58 
1939   9A16 2B 23 29 02 
1939   9A1A DD CB       
1940   9A1C 5F 52 4C 43 	.DB '_RLC (IY+#)',2,0FDH,0CBH
1940   9A20 20 28 49 59 
1940   9A24 2B 23 29 02 
1940   9A28 FD CB       
1941   9A2A 5F 52 4C 43 	.DB '_RLC A',2,0CBH,007H
1941   9A2E 20 41 02 CB 
1941   9A32 07          
1942   9A33 5F 52 4C 43 	.DB '_RLC B',2,0CBH,000H
1942   9A37 20 42 02 CB 
1942   9A3B 00          
1943   9A3C 5F 52 4C 43 	.DB '_RLC C',2,0CBH,001H
1943   9A40 20 43 02 CB 
1943   9A44 01          
1944   9A45 5F 52 4C 43 	.DB '_RLC D',2,0CBH,002H
1944   9A49 20 44 02 CB 
1944   9A4D 02          
1945   9A4E 5F 52 4C 43 	.DB '_RLC E',2,0CBH,003H
1945   9A52 20 45 02 CB 
1945   9A56 03          
1946   9A57 5F 52 4C 43 	.DB '_RLC H',2,0CBH,004H
1946   9A5B 20 48 02 CB 
1946   9A5F 04          
1947   9A60 5F 52 4C 43 	.DB '_RLC L',2,0CBH,005H
1947   9A64 20 4C 02 CB 
1947   9A68 05          
1948   9A69 5F 52 4C 44 	.DB '_RLD',2,0EDH,06FH
1948   9A6D 02 ED 6F    
1949   9A70 5F 52 52 44 	.DB '_RRD',2,0EDH,067H
1949   9A74 02 ED 67    
1950   9A77 5F 52 52 20 	.DB '_RR (HL)',2,0CBH,01EH
1950   9A7B 28 48 4C 29 
1950   9A7F 02 CB 1E    
1951   9A82 5F 52 52 20 	.DB '_RR (IX+#)',2,0DDH,0CBH
1951   9A86 28 49 58 2B 
1951   9A8A 23 29 02 DD 
1951   9A8E CB          
1952   9A8F 5F 52 52 20 	.DB '_RR (IY+#)',2,0FDH,0CBH
1952   9A93 28 49 59 2B 
1952   9A97 23 29 02 FD 
1952   9A9B CB          
1953   9A9C 5F 52 52 20 	.DB '_RR A',2,0CBH,01FH
1953   9AA0 41 02 CB 1F 
1954   9AA4 5F 52 52 20 	.DB '_RR B',2,0CBH,018H
1954   9AA8 42 02 CB 18 
1955   9AAC 5F 52 52 20 	.DB '_RR C',2,0CBH,019H
1955   9AB0 43 02 CB 19 
1956   9AB4 5F 52 52 20 	.DB '_RR D',2,0CBH,01AH
1956   9AB8 44 02 CB 1A 
1957   9ABC 5F 52 52 20 	.DB '_RR E',2,0CBH,01BH
1957   9AC0 45 02 CB 1B 
1958   9AC4 5F 52 52 20 	.DB '_RR H',2,0CBH,01CH
1958   9AC8 48 02 CB 1C 
1959   9ACC 5F 52 52 20 	.DB '_RR L',2,0CBH,01DH
1959   9AD0 4C 02 CB 1D 
1960   9AD4 5F 52 52 43 	.DB '_RRC (HL)',2,0CBH,00EH
1960   9AD8 20 28 48 4C 
1960   9ADC 29 02 CB 0E 
1961   9AE0 5F 52 52 43 	.DB '_RRC (IX+#)',2,0DDH,0CBH
1961   9AE4 20 28 49 58 
1961   9AE8 2B 23 29 02 
1961   9AEC DD CB       
1962   9AEE 5F 52 52 43 	.DB '_RRC (IY+#)',2,0FDH,0CBH
1962   9AF2 20 28 49 59 
1962   9AF6 2B 23 29 02 
1962   9AFA FD CB       
1963   9AFC 5F 52 52 43 	.DB '_RRC A',2,0CBH,00FH
1963   9B00 20 41 02 CB 
1963   9B04 0F          
1964   9B05 5F 52 52 43 	.DB '_RRC B',2,0CBH,008H
1964   9B09 20 42 02 CB 
1964   9B0D 08          
1965   9B0E 5F 52 52 43 	.DB '_RRC C',2,0CBH,009H
1965   9B12 20 43 02 CB 
1965   9B16 09          
1966   9B17 5F 52 52 43 	.DB '_RRC D',2,0CBH,00AH
1966   9B1B 20 44 02 CB 
1966   9B1F 0A          
1967   9B20 5F 52 52 43 	.DB '_RRC E',2,0CBH,00BH
1967   9B24 20 45 02 CB 
1967   9B28 0B          
1968   9B29 5F 52 52 43 	.DB '_RRC H',2,0CBH,00CH
1968   9B2D 20 48 02 CB 
1968   9B31 0C          
1969   9B32 5F 52 52 43 	.DB '_RRC L',2,0CBH,00DH
1969   9B36 20 4C 02 CB 
1969   9B3A 0D          
1970   9B3B             	
1971   9B3B 5F 53 42 43 	.DB '_SBC A',2CH,'(IX+#)',2,0DDH,09EH
1971   9B3F 20 41 2C 28 
1971   9B43 49 58 2B 23 
1971   9B47 29 02 DD 9E 
1972   9B4B 5F 53 42 43 	.DB '_SBC A',2CH,'(IY+#)',2,0FDH,09EH
1972   9B4F 20 41 2C 28 
1972   9B53 49 59 2B 23 
1972   9B57 29 02 FD 9E 
1973   9B5B 5F 53 42 43 	.DB '_SBC HL',2CH,'BC',2,0EDH,042H
1973   9B5F 20 48 4C 2C 
1973   9B63 42 43 02 ED 
1973   9B67 42          
1974   9B68 5F 53 42 43 	.DB '_SBC HL',2CH,'DE',2,0EDH,052H
1974   9B6C 20 48 4C 2C 
1974   9B70 44 45 02 ED 
1974   9B74 52          
1975   9B75 5F 53 42 43 	.DB '_SBC HL',2CH,'HL',2,0EDH,062H
1975   9B79 20 48 4C 2C 
1975   9B7D 48 4C 02 ED 
1975   9B81 62          
1976   9B82 5F 53 42 43 	.DB '_SBC HL',2CH,'SP',2,0EDH,072H
1976   9B86 20 48 4C 2C 
1976   9B8A 53 50 02 ED 
1976   9B8E 72          
1977   9B8F 5F 53 45 54 	.DB '_SET #',2CH,'(HL)',2,0CBH,0C6H
1977   9B93 20 23 2C 28 
1977   9B97 48 4C 29 02 
1977   9B9B CB C6       
1978   9B9D 5F 53 45 54 	.DB '_SET #',2CH,'(IX+#)',2,0DDH,0CBH
1978   9BA1 20 23 2C 28 
1978   9BA5 49 58 2B 23 
1978   9BA9 29 02 DD CB 
1979   9BAD 5F 53 45 54 	.DB '_SET #',2CH,'(IY+#)',2,0FDH,0CBH
1979   9BB1 20 23 2C 28 
1979   9BB5 49 59 2B 23 
1979   9BB9 29 02 FD CB 
1980   9BBD 5F 53 45 54 	.DB '_SET #',2CH,'A',2,0CBH,0C7H
1980   9BC1 20 23 2C 41 
1980   9BC5 02 CB C7    
1981   9BC8 5F 53 45 54 	.DB '_SET #',2CH,'B',2,0CBH,0C0H
1981   9BCC 20 23 2C 42 
1981   9BD0 02 CB C0    
1982   9BD3 5F 53 45 54 	.DB '_SET #',2CH,'C',2,0CBH,0C1H
1982   9BD7 20 23 2C 43 
1982   9BDB 02 CB C1    
1983   9BDE 5F 53 45 54 	.DB '_SET #',2CH,'D',2,0CBH,0C2H
1983   9BE2 20 23 2C 44 
1983   9BE6 02 CB C2    
1984   9BE9 5F 53 45 54 	.DB '_SET #',2CH,'E',2,0CBH,0C3H
1984   9BED 20 23 2C 45 
1984   9BF1 02 CB C3    
1985   9BF4 5F 53 45 54 	.DB '_SET #',2CH,'H',2,0CBH,0C4H
1985   9BF8 20 23 2C 48 
1985   9BFC 02 CB C4    
1986   9BFF 5F 53 45 54 	.DB '_SET #',2CH,'L',2,0CBH,0C5H
1986   9C03 20 23 2C 4C 
1986   9C07 02 CB C5    
1987   9C0A                
1988   9C0A 5F 53 4C 41 	.DB '_SLA (HL)',2,0CBH,026H
1988   9C0E 20 28 48 4C 
1988   9C12 29 02 CB 26 
1989   9C16 5F 53 4C 41 	.DB '_SLA (IX+#)',2,0DDH,0CBH
1989   9C1A 20 28 49 58 
1989   9C1E 2B 23 29 02 
1989   9C22 DD CB       
1990   9C24 5F 53 4C 41 	.DB '_SLA (IY+#)',2,0FDH,0CBH
1990   9C28 20 28 49 59 
1990   9C2C 2B 23 29 02 
1990   9C30 FD CB       
1991   9C32 5F 53 4C 41 	.DB '_SLA A',2,0CBH,027H
1991   9C36 20 41 02 CB 
1991   9C3A 27          
1992   9C3B 5F 53 4C 41 	.DB '_SLA B',2,0CBH,020H
1992   9C3F 20 42 02 CB 
1992   9C43 20          
1993   9C44 5F 53 4C 41 	.DB '_SLA C',2,0CBH,021H
1993   9C48 20 43 02 CB 
1993   9C4C 21          
1994   9C4D 5F 53 4C 41 	.DB '_SLA D',2,0CBH,022H
1994   9C51 20 44 02 CB 
1994   9C55 22          
1995   9C56 5F 53 4C 41 	.DB '_SLA E',2,0CBH,023H
1995   9C5A 20 45 02 CB 
1995   9C5E 23          
1996   9C5F 5F 53 4C 41 	.DB '_SLA H',2,0CBH,024H
1996   9C63 20 48 02 CB 
1996   9C67 24          
1997   9C68 5F 53 4C 41 	.DB '_SLA L',2,0CBH,025H
1997   9C6C 20 4C 02 CB 
1997   9C70 25          
1998   9C71 5F 53 52 41 	.DB '_SRA (HL)',2,0CBH,02EH
1998   9C75 20 28 48 4C 
1998   9C79 29 02 CB 2E 
1999   9C7D 5F 53 52 41 	.DB '_SRA (IX+#)',2,0DDH,0CBH
1999   9C81 20 28 49 58 
1999   9C85 2B 23 29 02 
1999   9C89 DD CB       
2000   9C8B 5F 53 52 41 	.DB '_SRA (IY+#)',2,0FDH,0CBH
2000   9C8F 20 28 49 59 
2000   9C93 2B 23 29 02 
2000   9C97 FD CB       
2001   9C99 5F 53 52 41 	.DB '_SRA A',2,0CBH,02FH
2001   9C9D 20 41 02 CB 
2001   9CA1 2F          
2002   9CA2 5F 53 52 41 	.DB '_SRA B',2,0CBH,028H
2002   9CA6 20 42 02 CB 
2002   9CAA 28          
2003   9CAB 5F 53 52 41 	.DB '_SRA C',2,0CBH,029H
2003   9CAF 20 43 02 CB 
2003   9CB3 29          
2004   9CB4 5F 53 52 41 	.DB '_SRA D',2,0CBH,02AH
2004   9CB8 20 44 02 CB 
2004   9CBC 2A          
2005   9CBD 5F 53 52 41 	.DB '_SRA E',2,0CBH,02BH
2005   9CC1 20 45 02 CB 
2005   9CC5 2B          
2006   9CC6 5F 53 52 41 	.DB '_SRA H',2,0CBH,02CH
2006   9CCA 20 48 02 CB 
2006   9CCE 2C          
2007   9CCF 5F 53 52 41 	.DB '_SRA L',2,0CBH,02DH
2007   9CD3 20 4C 02 CB 
2007   9CD7 2D          
2008   9CD8             	   
2009   9CD8 5F 53 52 4C 	.DB '_SRL (HL)',2,0CBH,03EH
2009   9CDC 20 28 48 4C 
2009   9CE0 29 02 CB 3E 
2010   9CE4 5F 53 52 4C 	.DB '_SRL (IX+#)',2,0DDH,0CBH
2010   9CE8 20 28 49 58 
2010   9CEC 2B 23 29 02 
2010   9CF0 DD CB       
2011   9CF2 5F 53 52 4C 	.DB '_SRL (IY+#)',2,0FDH,0CBH
2011   9CF6 20 28 49 59 
2011   9CFA 2B 23 29 02 
2011   9CFE FD CB       
2012   9D00 5F 53 52 4C 	.DB '_SRL A',2,0CBH,03FH
2012   9D04 20 41 02 CB 
2012   9D08 3F          
2013   9D09 5F 53 52 4C 	.DB '_SRL B',2,0CBH,038H
2013   9D0D 20 42 02 CB 
2013   9D11 38          
2014   9D12 5F 53 52 4C 	.DB '_SRL C',2,0CBH,039H
2014   9D16 20 43 02 CB 
2014   9D1A 39          
2015   9D1B 5F 53 52 4C 	.DB '_SRL D',2,0CBH,03AH
2015   9D1F 20 44 02 CB 
2015   9D23 3A          
2016   9D24 5F 53 52 4C 	.DB '_SRL E',2,0CBH,03BH
2016   9D28 20 45 02 CB 
2016   9D2C 3B          
2017   9D2D 5F 53 52 4C 	.DB '_SRL H',2,0CBH,03CH
2017   9D31 20 48 02 CB 
2017   9D35 3C          
2018   9D36 5F 53 52 4C 	.DB '_SRL L',2,0CBH,03DH
2018   9D3A 20 4C 02 CB 
2018   9D3E 3D          
2019   9D3F 5F 53 55 42 	.DB '_SUB (IX+#)',2,0DDH,096H
2019   9D43 20 28 49 58 
2019   9D47 2B 23 29 02 
2019   9D4B DD 96       
2020   9D4D 5F 53 55 42 	.DB '_SUB (IY+#)',2,0FDH,096H
2020   9D51 20 28 49 59 
2020   9D55 2B 23 29 02 
2020   9D59 FD 96       
2021   9D5B             
2022   9D5B 5F 58 4F 52 	.DB '_XOR (IX+#)',2,0DDH,0AEH
2022   9D5F 20 28 49 58 
2022   9D63 2B 23 29 02 
2022   9D67 DD AE       
2023   9D69 5F 58 4F 52 	.DB '_XOR (IY+#)',2,0FDH,0AEH
2023   9D6D 20 28 49 59 
2023   9D71 2B 23 29 02 
2023   9D75 FD AE       
2024   9D77             
2025   9D77 00 00 00 00 	.DB 0,0,0,0,0,0,0,0
2025   9D7B 00 00 00 00 
2026   9D7F 00 00 00 00 	.DB 0,0,0,0,0,0,0,0
2026   9D83 00 00 00 00 
2027   9D87 00 00 00 00 CODEND:	.DB 0,0,0,0,0,0,0,0
2027   9D8B 00 00 00 00 
2028   9D8F 00 00 00 00 	.DB 0,0,0,0,0,0,0,0
2028   9D93 00 00 00 00 
2029   9D97             
2030   9D97             
2031   9D97             
2032   9D97             
2033   9D97             
2034   9D97             
2035   9D97             
2036   9D97             
2037   9D97             BYTEINP1:
2038   9D97 32 B2 FF    	LD (DIYEZDOLAR),A
2039   9D9A CD C4 A0    	CALL BYTEIN1 ;AFTER#
2040   9D9D C9          	RET
2041   9D9E             	
2042   9D9E             BYTEINP2:
2043   9D9E 32 B2 FF    	LD (DIYEZDOLAR),A
2044   9DA1 CD 9E A0    	CALL BYTEIN2 ;AFTER$
2045   9DA4 C9          	RET
2046   9DA5             
2047   9DA5             
2048   9DA5             
2049   9DA5 21 60 FF    CLRBUF:	LD HL,COMINBUF
2050   9DA8 06 0F       	LD B,0FH
2051   9DAA 3E 00       DIS30:	LD A,00H
2052   9DAC 77          	LD (HL),A
2053   9DAD 23          	INC HL
2054   9DAE 10 FA       	DJNZ DIS30  ;CLEAR INPUT BUFFER
2055   9DB0             	
2056   9DB0             	
2057   9DB0 21 80 FF    	LD HL,CODEBUF
2058   9DB3 06 0F       	LD B,0FH
2059   9DB5 3E 00       DISCB:	LD A,00H
2060   9DB7 77          	LD (HL),A
2061   9DB8 23          	INC HL
2062   9DB9 10 FA       	DJNZ DISCB  ;CLEAR CODE BUFFER
2063   9DBB             	
2064   9DBB 3E 00       	LD A,0
2065   9DBD 32 A0 FF    	LD (LINELENGHT),A	;CLEAR ALL COUNTER BUFFERS
2066   9DC0 32 A1 FF    	LD (LINELENGHT+1),A
2067   9DC3 32 B0 FF    	LD (OPBYTECNT),A
2068   9DC6 32 B2 FF    	LD (DIYEZDOLAR),A
2069   9DC9 32 B3 FF    	LD (CODEBUFLEN),A
2070   9DCC 32 B4 FF    	LD (CODEBUFLEN+1),A
2071   9DCF             	
2072   9DCF             	
2073   9DCF C9          	RET
2074   9DD0             	
2075   9DD0             	
2076   9DD0             ;---------------INTERPRETER STARTS HERE--------------------------
2077   9DD0             ;EFEX INLINE ASSEMBLER V.001 - 22.03.2017
2078   9DD0             ;SYSTEM VARIABLES:
2079   9DD0             ;3F60-3F6F  :COMMAND INPUT BUFFER
2080   9DD0             ;3FA0-3FA1  :COMMAND LINE LENGHT TO BE TRANSLATED
2081   9DD0             ;3F80-3F90  :CODE BUFFER-----NOT IN USE, RESERVED--------
2082   9DD0             ;3FA2-3FA3  :MNEMONIC TABLE FFINDED INDEX ADRESS
2083   9DD0             ;3FA4-3FA5  :ASSEMBLY ADRESS
2084   9DD0             ;
2085   9DD0             ;3FB0	    :OPERAND BYTE COUNT
2086   9DD0             ;3FB2	    : # OR $ OR NULL
2087   9DD0             ;3F42       :# CONTENT (DATA)
2088   9DD0             ;3F43-3F44  :$ CONTENT (ADRESS)
2089   9DD0             ;3FB3-3FB4  :CODE BUF. LENGHT
2090   9DD0             TABLE_AS:
2091   9DD0 0A 0D       	.DB 0AH,0DH
2092   9DD2 41 73 73 65 	.DB 'Assembler:'
2092   9DD6 6D 62 6C 65 
2092   9DDA 72 3A       
2093   9DDC 0A 0D       	.DB 0AH,0DH
2094   9DDE             	
2095   9DDE             ;---------------------
2096   9DDE             ;TABFINDAD TABLO KARSILASTIRMA ADRESI ICIN INDEX OLARAK KULLANILACAK
2097   9DDE             ; THIS ROUTINE INSPIRED FROM NAIVE STRING MATCHING ALGORITHM!!
2098   9DDE             ;
2099   9DDE             FINDCOM: 
2100   9DDE F5          	PUSH AF
2101   9DDF E5          	PUSH HL
2102   9DE0 D5          	PUSH DE
2103   9DE1 C5          	PUSH BC 
2104   9DE2             
2105   9DE2 21 F5 88    	LD HL,TABLECOD   ;SEARCH AND FIND MNEMONIC TABLE ADRESS INDEX
2106   9DE5 22 A2 FF    	LD (TABFINDAD),HL
2107   9DE8 2A A2 FF    LOOPF:	LD HL,(TABFINDAD)
2108   9DEB 11 60 FF    	LD DE, COMINBUF
2109   9DEE ED 4B A0 FF 	LD BC,(LINELENGHT)
2110   9DF2             		
2111   9DF2 1A          LOOPC:	LD A,(DE)
2112   9DF3 BE          	CP (HL)
2113   9DF4 C2 02 9E    	JP NZ, NOTFOUND
2114   9DF7 23          	INC HL
2115   9DF8 13          	INC DE
2116   9DF9 0B          	DEC BC
2117   9DFA 78          	LD A, B
2118   9DFB B1          	OR C
2119   9DFC C2 F2 9D    	JP NZ,LOOPC
2120   9DFF             	
2121   9DFF C3 1D 9E    	JP FOUND
2122   9E02             	
2123   9E02             NOTFOUND:		;IF STRING NOT FOUND INCREASE TABLE SEARCH ADRESS
2124   9E02 2A A2 FF    	LD HL,(TABFINDAD)	;THIS IS NAIVE STRING MATCHING ALGORITHM
2125   9E05 23          	INC HL
2126   9E06                  ;THIS CODE ADDED FOR TABLE END CONTROL	
2127   9E06             
2128   9E06 E5          	PUSH HL			;;TABLE END CONTROL FOR SYNTAX ERROR
2129   9E07 D5          	PUSH DE
2130   9E08             	
2131   9E08 21 87 9D    	LD HL,CODEND
2132   9E0B ED 5B A2 FF 	LD DE,(TABFINDAD)
2133   9E0F B7          	OR A     ;CLEAR CARRY FLAG
2134   9E10 ED 52       	SBC HL,DE
2135   9E12 CA 25 9E    	JP Z,ENDCONTROL
2136   9E15             	
2137   9E15 D1          	POP DE
2138   9E16 E1          	POP HL
2139   9E17             
2140   9E17             	
2141   9E17             	
2142   9E17                  ;THIS CODE ADDED FOR TABLE END CONTROL	
2143   9E17 22 A2 FF    	LD (TABFINDAD),HL
2144   9E1A C3 E8 9D    	JP LOOPF       ;IF NOT CONTINUE SEARCH
2145   9E1D             	
2146   9E1D             
2147   9E1D 22 A2 FF    FOUND:	LD (TABFINDAD),HL     ;FINDED ADRESS IN TABLE
2148   9E20 C1          	POP BC
2149   9E21 D1          	POP DE
2150   9E22 E1          	POP HL
2151   9E23 F1          	POP AF
2152   9E24 C9          	RET
2153   9E25             	
2154   9E25             ENDCONTROL:		
2155   9E25 3E 0D       	LD A,0DH
2156   9E27 CD 32 80    	CALL TXD
2157   9E2A 3E 0A       	LD A,0AH
2158   9E2C CD 32 80    	CALL TXD
2159   9E2F 06 0E       	LD B,14
2160   9E31 21 40 9E    	LD HL,ERROR
2161   9E34 7E          DISERR:	LD A,(HL)
2162   9E35 CD 32 80    	CALL TXD
2163   9E38 23          	INC HL
2164   9E39 10 F9       	DJNZ DISERR
2165   9E3B D1          	POP DE
2166   9E3C E1          	POP HL
2167   9E3D             	
2168   9E3D C3 C6 85    	JP AS_DON
2169   9E40             	
2170   9E40 53 79 6E 74 ERROR:	.DB 'Syntax '
2170   9E44 61 78 20    
2171   9E47 65 72 72 6F 	.DB 'error !'
2171   9E4B 72 20 21    
2172   9E4E             	
2173   9E4E             
2174   9E4E             
2175   9E4E             	
2176   9E4E             	
2177   9E4E             
2178   9E4E             
2179   9E4E             ;---------------MOVE------------------------
2180   9E4E             
2181   9E4E             MOVE: 		
2182   9E4E             
2183   9E4E             
2184   9E4E CD 74 9E    	CALL MOVE_SR     ;HL HOLDS SOURCE
2185   9E51 E5          	PUSH HL
2186   9E52 CD C6 9E    	CALL MOVE_DT     ;DE HOLDS TARGET
2187   9E55 D5          	PUSH DE
2188   9E56 CD 37 9F    	CALL MOVE_LNT    ;BC HOLDS LENGHT
2189   9E59             	
2190   9E59 D1          	POP DE
2191   9E5A E1          	POP HL
2192   9E5B             	
2193   9E5B             	
2194   9E5B 7E          LOP15:	LD A,(HL)      ;BLOCK COPY SUBROUTINE
2195   9E5C 12          	LD (DE),A
2196   9E5D 23          	INC HL
2197   9E5E 13          	INC DE
2198   9E5F 0B          	DEC BC
2199   9E60 78          	LD A,B
2200   9E61 B1          	OR C
2201   9E62 C2 5B 9E    	JP NZ, LOP15
2202   9E65             	
2203   9E65             	
2204   9E65             	
2205   9E65 21 A9 9F    	LD HL, TABLE14   ;MOVE COMPLETE MSG
2206   9E68 06 13       	LD B,19   ; DECIMAL IF NOT H AT THE END
2207   9E6A 7E          DIS14:	LD A,(HL)
2208   9E6B CD 32 80    	CALL TXD
2209   9E6E 23                  INC HL
2210   9E6F 10 F9       	DJNZ DIS14
2211   9E71             
2212   9E71             	
2213   9E71 C3 6C 81    	JP MA_IN
2214   9E74             	
2215   9E74             	
2216   9E74             	
2217   9E74             
2218   9E74             
2219   9E74             
2220   9E74             MOVE_SR:
2221   9E74 3E 4D       	LD A,'M'
2222   9E76 CD 32 80    	CALL TXD
2223   9E79 3E 2D       	LD A,'-'
2224   9E7B CD 32 80    	CALL TXD
2225   9E7E 3E 53       	LD A,'S'
2226   9E80 CD 32 80    	CALL TXD
2227   9E83 3E 6F       	LD A,'o'
2228   9E85 CD 32 80    	CALL TXD
2229   9E88 3E 75       	LD A,'u'
2230   9E8A CD 32 80    	CALL TXD
2231   9E8D 3E 72       	LD A,'r'
2232   9E8F CD 32 80    	CALL TXD 
2233   9E92 3E 63       	LD A,'c'
2234   9E94 CD 32 80    	CALL TXD
2235   9E97 3E 65       	LD A,'e'
2236   9E99 CD 32 80    	CALL TXD
2237   9E9C 3E 24       	LD A, '$'
2238   9E9E CD 32 80    	CALL TXD
2239   9EA1 3E 3F       	LD A, '?'
2240   9EA3 CD 32 80    	CALL TXD
2241   9EA6 3E 08       	LD A, 08H
2242   9EA8 CD 32 80    	CALL TXD ; DISPLAY 4 CHAR INPUT PROMPT
2243   9EAB             	
2244   9EAB 21 20 FF            LD HL, KEYINBUF
2245   9EAE 06 04       	LD B,4
2246   9EB0 CD 3E 80    DIS15:	CALL RXD
2247   9EB3 FE 1B       	CP 1BH
2248   9EB5 CA 6C 81    	JP Z, MA_IN
2249   9EB8 77          	LD (HL), A
2250   9EB9 23          	INC HL
2251   9EBA CD 32 80    	CALL TXD
2252   9EBD 10 F1       	DJNZ DIS15
2253   9EBF             	
2254   9EBF CD A9 A1            CALL INTLINR
2255   9EC2             	
2256   9EC2             	
2257   9EC2 2A 40 FF    	LD HL, (KEYINRES) ;HL HOLDS SOURCE ADRESS FOR MOVE
2258   9EC5             	
2259   9EC5 C9          	RET
2260   9EC6             
2261   9EC6             MOVE_DT:
2262   9EC6             	
2263   9EC6 3E 0A       	LD A,0AH
2264   9EC8 CD 32 80    	CALL TXD
2265   9ECB 3E 0D       	LD A,0DH
2266   9ECD CD 32 80    	CALL TXD
2267   9ED0 3E 20       	LD A,' '
2268   9ED2 CD 32 80    	CALL TXD
2269   9ED5 3E 20       	LD A,' '
2270   9ED7 CD 32 80    	CALL TXD
2271   9EDA 3E 20       	LD A,' '
2272   9EDC CD 32 80    	CALL TXD
2273   9EDF 3E 20       	LD A,' '
2274   9EE1 CD 32 80    	CALL TXD
2275   9EE4 3E 20       	LD A,' '
2276   9EE6 CD 32 80    	CALL TXD
2277   9EE9 3E 20       	LD A,' '	
2278   9EEB CD 32 80    	CALL TXD
2279   9EEE 3E 44       	LD A,'D'
2280   9EF0 CD 32 80    	CALL TXD
2281   9EF3 3E 65       	LD A,'e'
2282   9EF5 CD 32 80    	CALL TXD
2283   9EF8 3E 73       	LD A,'s'
2284   9EFA CD 32 80    	CALL TXD
2285   9EFD 3E 74       	LD A,'t'
2286   9EFF CD 32 80    	CALL TXD
2287   9F02 3E 2E       	LD A,'.'
2288   9F04 CD 32 80    	CALL TXD
2289   9F07 3E 2D       	LD A,'-'
2290   9F09 CD 32 80    	CALL TXD 
2291   9F0C 3E 24       	LD A, '$'
2292   9F0E CD 32 80    	CALL TXD
2293   9F11 3E 3F       	LD A, '?'
2294   9F13 CD 32 80    	CALL TXD
2295   9F16 3E 08       	LD A, 08H
2296   9F18 CD 32 80    	CALL TXD ; DISPLAY 4 CHAR INPUT PROMPT
2297   9F1B             	
2298   9F1B 21 20 FF            LD HL, KEYINBUF
2299   9F1E 06 04       	LD B,4
2300   9F20 CD 3E 80    DIS16:	CALL RXD
2301   9F23 FE 1B       	CP 1BH
2302   9F25 CA 6C 81    	JP Z, MA_IN
2303   9F28 77          	LD (HL), A
2304   9F29 23          	INC HL
2305   9F2A CD 32 80    	CALL TXD
2306   9F2D 10 F1       	DJNZ DIS16
2307   9F2F             	
2308   9F2F CD A9 A1            CALL INTLINR
2309   9F32             	
2310   9F32 2A 40 FF    	LD HL, (KEYINRES)
2311   9F35 EB          	EX DE,HL     ;DE HOLDS TARGET ADRESS
2312   9F36             	
2313   9F36 C9          	RET
2314   9F37             	
2315   9F37             	
2316   9F37             MOVE_LNT:
2317   9F37 3E 0A       	LD A,0AH
2318   9F39 CD 32 80    	CALL TXD
2319   9F3C 3E 0D       	LD A,0DH
2320   9F3E CD 32 80    	CALL TXD
2321   9F41 3E 20       	LD A,' '
2322   9F43 CD 32 80    	CALL TXD
2323   9F46 3E 20       	LD A,' '
2324   9F48 CD 32 80    	CALL TXD
2325   9F4B 3E 20       	LD A,' '
2326   9F4D CD 32 80    	CALL TXD
2327   9F50 3E 20       	LD A,' '
2328   9F52 CD 32 80    	CALL TXD
2329   9F55 3E 20       	LD A,' '
2330   9F57 CD 32 80    	CALL TXD
2331   9F5A 3E 20       	LD A,' '	
2332   9F5C CD 32 80    	CALL TXD
2333   9F5F 3E 4C       	LD A,'L'
2334   9F61 CD 32 80    	CALL TXD
2335   9F64 3E 65       	LD A,'e'
2336   9F66 CD 32 80    	CALL TXD
2337   9F69 3E 67       	LD A,'g'
2338   9F6B CD 32 80    	CALL TXD
2339   9F6E 3E 68       	LD A,'h'
2340   9F70 CD 32 80    	CALL TXD
2341   9F73 3E 74       	LD A,'t'
2342   9F75 CD 32 80    	CALL TXD
2343   9F78 3E 2D       	LD A,'-'
2344   9F7A CD 32 80    	CALL TXD 
2345   9F7D 3E 24       	LD A, '$'
2346   9F7F CD 32 80    	CALL TXD
2347   9F82 3E 3F       	LD A, '?'
2348   9F84 CD 32 80    	CALL TXD
2349   9F87 3E 08       	LD A, 08H
2350   9F89 CD 32 80    	CALL TXD ; DISPLAY 4 CHAR INPUT PROMPT
2351   9F8C             	
2352   9F8C 21 20 FF            LD HL, KEYINBUF
2353   9F8F 06 04       	LD B,4
2354   9F91 CD 3E 80    DIS17:	CALL RXD
2355   9F94 FE 1B       	CP 1BH
2356   9F96 CA 6C 81    	JP Z, MA_IN
2357   9F99 77          	LD (HL), A
2358   9F9A 23          	INC HL
2359   9F9B CD 32 80    	CALL TXD
2360   9F9E 10 F1       	DJNZ DIS17
2361   9FA0             	
2362   9FA0 CD A9 A1            CALL INTLINR
2363   9FA3             	
2364   9FA3             	
2365   9FA3 2A 40 FF    	LD HL, (KEYINRES)
2366   9FA6 44          	LD B,H
2367   9FA7 4D          	LD C,L          ;BC HOLDS BLOCK LENGHT 
2368   9FA8             	
2369   9FA8 C9          	RET
2370   9FA9             
2371   9FA9             TABLE14:
2372   9FA9 0D 0A       	.DB 0DH,0AH 
2373   9FAB 4D 4F 56 45 	.DB 'MOVE '
2373   9FAF 20          
2374   9FB0 43 4F 4D 50 	.DB 'COMPLETE !'
2374   9FB4 4C 45 54 45 
2374   9FB8 20 21       
2375   9FBA 0A 0D       	.DB 0AH,0DH
2376   9FBC             	
2377   9FBC             
2378   9FBC             
2379   9FBC             
2380   9FBC             
2381   9FBC             	
2382   9FBC             ;-----------------SAVE-----------------------
2383   9FBC             ;HL: START ADRESS, DE:END ADRESS TO SAVE	
2384   9FBC             
2385   9FBC             SAVEX: 		
2386   9FBC             
2387   9FBC             
2388   9FBC CD E5 9F    	CALL SAVE_ADR1
2389   9FBF E5          	PUSH HL
2390   9FC0             	
2391   9FC0 CD 32 A0    	CALL SAVE_ADR2
2392   9FC3 E1          	POP HL
2393   9FC4 CD 44 A2           	CALL INTSAVE
2394   9FC7 C3 6C 81           	JP MA_IN
2395   9FCA             	
2396   9FCA             	
2397   9FCA 21 27 81    	LD HL,TABLE13   ;READY SAVE FILE MSG
2398   9FCD 06 1C       	LD B,28   ; DECIMAL IF NOT H AT THE END
2399   9FCF 7E          DIS13:	LD A,(HL)
2400   9FD0 CD 32 80    	CALL TXD
2401   9FD3 23                  INC HL
2402   9FD4 10 F9       	DJNZ DIS13
2403   9FD6 CD 3E 80    LOP13:	CALL RXD
2404   9FD9 FE 1B       	CP 1BH
2405   9FDB CA 6C 81    	JP Z, MA_IN
2406   9FDE FE 0D       	CP 0DH
2407   9FE0 C2 D6 9F    	JP NZ,LOP13
2408   9FE3             	
2409   9FE3 E1          	POP HL
2410   9FE4 D1          	POP DE
2411   9FE5             	
2412   9FE5             
2413   9FE5             
2414   9FE5             
2415   9FE5             SAVE_ADR1:
2416   9FE5 3E 53       	LD A,'S'
2417   9FE7 CD 32 80    	CALL TXD
2418   9FEA 3E 2D       	LD A,'-'
2419   9FEC CD 32 80    	CALL TXD
2420   9FEF 3E 53       	LD A,'S'
2421   9FF1 CD 32 80    	CALL TXD
2422   9FF4 3E 54       	LD A,'T'
2423   9FF6 CD 32 80    	CALL TXD
2424   9FF9 3E 41       	LD A,'A'
2425   9FFB CD 32 80    	CALL TXD
2426   9FFE 3E 52       	LD A,'R'
2427   A000 CD 32 80    	CALL TXD 
2428   A003 3E 54       	LD A,'T'
2429   A005 CD 32 80    	CALL TXD
2430   A008 3E 24       	LD A, '$'
2431   A00A CD 32 80    	CALL TXD
2432   A00D 3E 3F       	LD A, '?'
2433   A00F CD 32 80    	CALL TXD
2434   A012 3E 08       	LD A, 08H
2435   A014 CD 32 80    	CALL TXD ; DISPLAY 4 CHAR INPUT PROMPT
2436   A017             	
2437   A017 21 20 FF            LD HL, KEYINBUF
2438   A01A 06 04       	LD B,4
2439   A01C             	
2440   A01C             
2441   A01C CD 3E 80    DIS11:	CALL RXD
2442   A01F FE 1B       	CP 1BH
2443   A021 CA 6C 81    	JP Z, MA_IN
2444   A024 77          	LD (HL), A
2445   A025 23          	INC HL
2446   A026 CD 32 80    	CALL TXD
2447   A029 10 F1       	DJNZ DIS11
2448   A02B             	
2449   A02B CD A9 A1            CALL INTLINR
2450   A02E             	
2451   A02E             	
2452   A02E 2A 40 FF    	LD HL, (KEYINRES)
2453   A031 C9          	RET
2454   A032             
2455   A032             SAVE_ADR2:
2456   A032 3E 0A       	LD A,0AH
2457   A034 CD 32 80    	CALL TXD
2458   A037 3E 0D       	LD A,0DH
2459   A039 CD 32 80    	CALL TXD
2460   A03C 3E 20       	LD A,' '
2461   A03E CD 32 80    	CALL TXD
2462   A041 3E 20       	LD A,' '
2463   A043 CD 32 80    	CALL TXD
2464   A046 3E 20       	LD A,' '
2465   A048 CD 32 80    	CALL TXD
2466   A04B 3E 20       	LD A,' '
2467   A04D CD 32 80    	CALL TXD
2468   A050 3E 20       	LD A,' '
2469   A052 CD 32 80    	CALL TXD
2470   A055 3E 20       	LD A,' '	
2471   A057 CD 32 80    	CALL TXD
2472   A05A 3E 20       	LD A,' '
2473   A05C CD 32 80    	CALL TXD
2474   A05F 3E 45       	LD A,'E'
2475   A061 CD 32 80    	CALL TXD
2476   A064 3E 4E       	LD A,'N'
2477   A066 CD 32 80    	CALL TXD
2478   A069 3E 44       	LD A,'D'
2479   A06B CD 32 80    	CALL TXD
2480   A06E 3E 2D       	LD A,'-'
2481   A070 CD 32 80    	CALL TXD 
2482   A073 3E 24       	LD A, '$'
2483   A075 CD 32 80    	CALL TXD
2484   A078 3E 3F       	LD A, '?'
2485   A07A CD 32 80    	CALL TXD
2486   A07D 3E 08       	LD A, 08H
2487   A07F CD 32 80    	CALL TXD ; DISPLAY 4 CHAR INPUT PROMPT
2488   A082             	
2489   A082 21 20 FF            LD HL, KEYINBUF
2490   A085 06 04       	LD B,4
2491   A087 CD 3E 80    DIS12:	CALL RXD
2492   A08A FE 1B       	CP 1BH
2493   A08C CA 6C 81    	JP Z, MA_IN
2494   A08F 77          	LD (HL), A
2495   A090 23          	INC HL
2496   A091 CD 32 80    	CALL TXD
2497   A094 10 F1       	DJNZ DIS12
2498   A096             	
2499   A096 CD A9 A1            CALL INTLINR
2500   A099             	
2501   A099             	
2502   A099 2A 40 FF    	LD HL, (KEYINRES)
2503   A09C EB          	EX DE,HL     ;DE HOLDS END ADRESS
2504   A09D             	
2505   A09D C9          	RET
2506   A09E             	
2507   A09E             
2508   A09E             
2509   A09E             ;------------------INPUT--------------------------------
2510   A09E             ;INPUT DONT CHANGES ANY REGISTER!!!
2511   A09E             ;1 BYTE RESULT AT: DATAINP
2512   A09E             ;2 BYTE RESULT AT: ADRSINP-3F44H
2513   A09E             
2514   A09E             
2515   A09E             BYTEIN2:
2516   A09E F5          	PUSH AF
2517   A09F E5          	PUSH HL
2518   A0A0 C5          	PUSH BC
2519   A0A1 D5          	PUSH DE 
2520   A0A2 21 20 FF     	LD HL, KEYINBUF  ;4 CHAR ADRESS INPUT
2521   A0A5 06 04       	LD B,4
2522   A0A7 CD 3E 80    DIS25:	CALL RXD
2523   A0AA FE 1B       	CP 1BH
2524   A0AC CA 6C 81    	JP Z, MA_IN
2525   A0AF 77          	LD (HL), A
2526   A0B0 23          	INC HL
2527   A0B1 CD 32 80    	CALL TXD  ;PRINT NIBBLE
2528   A0B4 10 F1       	DJNZ DIS25  ;GET 4 NIBBLE FROM KEYINBUF TO 3F23H
2529   A0B6 CD A9 A1    	CALL INTLINR  ;  
2530   A0B9 2A 40 FF    	LD HL,(KEYINRES)
2531   A0BC 22 43 FF    	LD (ADRSINP),HL ; TWO BYTES ADRESS AT 3F43(High), AND 3F44(Low)
2532   A0BF D1          	POP DE 
2533   A0C0 C1          	POP BC
2534   A0C1 E1          	POP HL
2535   A0C2 F1          	POP AF
2536   A0C3 C9          	RET
2537   A0C4             	
2538   A0C4             BYTEIN1:
2539   A0C4 F5          	PUSH AF
2540   A0C5 E5          	PUSH HL
2541   A0C6 C5          	PUSH BC
2542   A0C7 D5          	PUSH DE
2543   A0C8 21 22 FF    	LD HL, KEYINBUF + 2 ;2 CHAR DATA INPUT
2544   A0CB 06 02       	LD B,2
2545   A0CD CD 3E 80    DIS26:	CALL RXD
2546   A0D0 FE 1B       	CP 1BH
2547   A0D2 CA 6C 81    	JP Z, MA_IN
2548   A0D5 77          	LD (HL), A
2549   A0D6 23          	INC HL
2550   A0D7 CD 32 80    	CALL TXD   ;PRINT NIBBLE
2551   A0DA 10 F1       	DJNZ DIS26
2552   A0DC CD B3 A1    	CALL INLIN2  
2553   A0DF 3A 40 FF    	LD A,(KEYINRES)
2554   A0E2 32 42 FF    	LD (DATAINP),A ;1 BYTE INPUT: RESULT IN 3F42
2555   A0E5 D1          	POP DE 
2556   A0E6 C1          	POP BC
2557   A0E7 E1          	POP HL
2558   A0E8 F1          	POP AF
2559   A0E9 C9          	RET
2560   A0EA             
2561   A0EA             	
2562   A0EA             ;--------------------EDIT------------------------------
2563   A0EA             	
2564   A0EA 3E 45       EDIT:   LD A,'E'
2565   A0EC CD 32 80    	CALL TXD
2566   A0EF 3E 2D       	LD A,'-'
2567   A0F1 CD 32 80    	CALL TXD 
2568   A0F4 3E 24       	LD A, '$'
2569   A0F6 CD 32 80    	CALL TXD
2570   A0F9 3E 3F       	LD A, '?'
2571   A0FB CD 32 80    	CALL TXD
2572   A0FE 3E 08       	LD A, 08H
2573   A100 CD 32 80    	CALL TXD ; DISPLAY 4 CHAR INPUT PROMPT
2574   A103             	
2575   A103 21 20 FF            LD HL, KEYINBUF  ;4 CHAR ADRESS INPUT
2576   A106 06 04       	LD B,4
2577   A108 CD 3E 80    DIS9:	CALL RXD
2578   A10B FE 1B       	CP 1BH
2579   A10D CA 6C 81    	JP Z, MA_IN
2580   A110 77          	LD (HL), A
2581   A111 23          	INC HL
2582   A112 CD 32 80    	CALL TXD
2583   A115 10 F1       	DJNZ DIS9
2584   A117             	
2585   A117             
2586   A117 CD A9 A1    	CALL INTLINR  ;ADRESS AT 3F40 AND 3F41
2587   A11A 2A 40 FF    	LD HL,(KEYINRES)
2588   A11D 22 43 FF    	LD (ADRSINP),HL ; 3F43 STORES RESULT ADRESS
2589   A120 3E 3A       	LD A, ':'
2590   A122 CD 32 80    	CALL TXD
2591   A125             	
2592   A125 2A 40 FF    	LD HL,(KEYINRES)   ;GIRILEN ADRESS
2593   A128 7E          	LD A, (HL)
2594   A129 32 42 FF    	LD (DATAINP),A    ;STORE SHOWING ADRESS CONTENT: RESULT DATA
2595   A12C             
2596   A12C CD C2 A2    	CALL HEXOUT    ;DISPLAY INPUTTED ADRESS CONTENT
2597   A12F 3E 08       	LD A, 08H
2598   A131 CD 32 80    	CALL TXD
2599   A134 3E 08       	LD A, 08H
2600   A136 CD 32 80    	CALL TXD  ;2 BACKSPACE ON EDITING DATA
2601   A139             	
2602   A139 21 22 FF    	LD HL, KEYINBUF + 2 ;2 CHAR DATA INPUT
2603   A13C 06 02       	LD B,2
2604   A13E CD 3E 80    DIS10:	CALL RXD
2605   A141 FE 1B       	CP 1BH
2606   A143 CA 6C 81    	JP Z, MA_IN  ;ESC= EXIT
2607   A146 FE 0D       	CP 0DH
2608   A148 CA 6B A1    	JP Z, KAYIT
2609   A14B 77          	LD (HL), A
2610   A14C 23          	INC HL
2611   A14D CD 32 80    	CALL TXD
2612   A150 10 EC       	DJNZ DIS10
2613   A152             	
2614   A152                     	
2615   A152             	
2616   A152 CD B3 A1    	CALL INLIN2  ;1 BYTE INPUT: RESULT IN 3F40
2617   A155 3A 40 FF    	LD A,(KEYINRES)
2618   A158 32 42 FF    	LD (DATAINP),A
2619   A15B             	
2620   A15B CD 3E 80    DON10:	CALL RXD
2621   A15E FE 1B       	CP 1BH
2622   A160 CA 6C 81    	JP Z, MA_IN
2623   A163 FE 0D       	CP 0DH
2624   A165 CA 6B A1    	JP Z, KAYIT
2625   A168 C3 5B A1    	JP DON10
2626   A16B             	
2627   A16B 3A 42 FF    KAYIT:  LD A,(DATAINP)
2628   A16E 2A 43 FF    	LD HL,(ADRSINP)
2629   A171 77          	LD (HL),A      ;ILK ADRESIN KAYDI TAMAM
2630   A172 C3 6C 81    	JP MA_IN
2631   A175             		
2632   A175             
2633   A175             
2634   A175             	
2635   A175             	
2636   A175             		 
2637   A175             	
2638   A175             	
2639   A175             		
2640   A175             		
2641   A175             
2642   A175             
2643   A175             
2644   A175             ;------------------GO TO ADRESS-(RUN)----------------------
2645   A175             
2646   A175             	
2647   A175             	
2648   A175             RUN_ADR:
2649   A175 3E 47       	LD A,'G'
2650   A177 CD 32 80    	CALL TXD
2651   A17A 3E 2D       	LD A,'-'
2652   A17C CD 32 80    	CALL TXD 
2653   A17F 3E 24       	LD A, '$'
2654   A181 CD 32 80    	CALL TXD
2655   A184 3E 3F       	LD A, '?'
2656   A186 CD 32 80    	CALL TXD
2657   A189 3E 08       	LD A, 08H
2658   A18B CD 32 80    	CALL TXD ; DISPLAY 4 CHAR INPUT PROMPT
2659   A18E             	
2660   A18E 21 20 FF            LD HL, KEYINBUF
2661   A191 06 04       	LD B,4
2662   A193 CD 3E 80    DIS7:	CALL RXD
2663   A196 FE 1B       	CP 1BH
2664   A198 CA 6C 81    	JP Z, MA_IN
2665   A19B 77          	LD (HL), A
2666   A19C 23          	INC HL
2667   A19D CD 32 80    	CALL TXD
2668   A1A0 10 F1       	DJNZ DIS7
2669   A1A2             	
2670   A1A2 CD A9 A1            CALL INTLINR
2671   A1A5             	
2672   A1A5             	
2673   A1A5 2A 40 FF    	LD HL, (KEYINRES)
2674   A1A8 E9          	JP (HL)
2675   A1A9             	;JP MA_IN
2676   A1A9             	
2677   A1A9             
2678   A1A9             ;----------------INPUT HEX TO BYTE CONVERTER 2 BYTE OR 1 BYTE---------
2679   A1A9             INTLINR:                   ;4 NIBBLE  INPUT   
2680   A1A9 21 1F FF    	LD HL, KEYINBUF -1 ; 
2681   A1AC 7E          	LD A,(HL)
2682   A1AD CD BE A1    	CALL BYTERDR 
2683   A1B0 32 41 FF    	LD (KEYINRES + 1),A 
2684   A1B3             	
2685   A1B3 21 21 FF    INLIN2:	LD HL, KEYINBUF + 1       ;2 NIBBLE INPUT
2686   A1B6 7E          	LD A,(HL)
2687   A1B7 CD BE A1    	CALL BYTERDR 
2688   A1BA 32 40 FF    	LD (KEYINRES),A 
2689   A1BD C9          	RET
2690   A1BE             	
2691   A1BE             
2692   A1BE             BYTERDR:
2693   A1BE             		
2694   A1BE 16 00       	LD	D,000h		;Set up   ;	* Get 2 ASCII chrs as hex byte	*
2695   A1C0 CD C8 A1    	CALL	HEXCONR		;Get byte and convert to hex
2696   A1C3 87          	ADD	A,A		;First nibble so
2697   A1C4 87          	ADD	A,A		;multiply by 16
2698   A1C5 87          	ADD	A,A		;
2699   A1C6 87          	ADD	A,A		;
2700   A1C7 57          	LD	D,A		;Save hi nibble in D
2701   A1C8             HEXCONR:
2702   A1C8             	
2703   A1C8 23          	INC HL                ;HL:FF21
2704   A1C9             	
2705   A1C9 7E          	LD A, (HL)
2706   A1CA             		
2707   A1CA             	;CALL	RXD		;Get next chr
2708   A1CA D6 30       	SUB	030h		;Makes '0'-'9' equal 0-9
2709   A1CC FE 0A       	CP	00Ah		;Is it 0-9 ?
2710   A1CE 38 02       	JR	C,NALPHAR	;If so miss next bit
2711   A1D0 D6 07       	SUB	007h		;Else convert alpha
2712   A1D2             NALPHAR:	
2713   A1D2 B2          	OR	D		;Add hi nibble back
2714   A1D3 C9          	RET			;RESULT STORED IN A REGISTER!
2715   A1D4             
2716   A1D4             
2717   A1D4             
2718   A1D4             
2719   A1D4             
2720   A1D4             LOADERZ:
2721   A1D4             		             ; SEND FILE MSG
2722   A1D4 21 0E 81    	LD HL,TABLE5
2723   A1D7 06 19       	LD B,25   ; DECIMAL IF NOT H AT THE END
2724   A1D9 7E          DIS5:	LD A,(HL)
2725   A1DA CD 32 80    	CALL TXD
2726   A1DD 23                  INC HL
2727   A1DE 10 F9       	DJNZ DIS5
2728   A1E0             	
2729   A1E0 21 5B 81    	LD HL,TABLE25         ;LOADING.. MSG
2730   A1E3 06 0B       	LD B,11   ; DECIMAL IF NOT H AT THE END
2731   A1E5 7E          DIS8:	LD A,(HL)
2732   A1E6 CD 32 80    	CALL TXD
2733   A1E9 23                  INC HL
2734   A1EA 10 F9       	DJNZ DIS8	
2735   A1EC             	
2736   A1EC             	
2737   A1EC             	
2738   A1EC CD F2 A1    	CALL INTLIN1
2739   A1EF C3 A3 80    	JP LOAD_ED
2740   A1F2             	
2741   A1F2             		
2742   A1F2             ;	*********************************
2743   A1F2             ;	*				*
2744   A1F2             ;	*     Get Intel hex record	*
2745   A1F2             ;	*				*
2746   A1F2             ;	*********************************
2747   A1F2             
2748   A1F2             ;Short version - no checksum calculation.
2749   A1F2             
2750   A1F2             INTLIN1:	
2751   A1F2 3E 00       	LD A,000H
2752   A1F4 32 4B FF    	LD (HEXLDREG),A
2753   A1F7 CD 3E 80    INTLIN:	CALL	RXD		;Get chr
2754   A1FA FE 1B       	CP  1BH
2755   A1FC C8          	RET Z
2756   A1FD FE 3A       	CP	':'		;Is it ':'?
2757   A1FF 20 F6       	JR	NZ,INTLIN	;If not then next
2758   A201 CD 2D A2    	CALL	BYTERD		;Get record length
2759   A204 47          	LD	B,A		;Put in B
2760   A205 CD 2D A2    	CALL	BYTERD		;Get record address hi byte
2761   A208 67          	LD	H,A		;Put in H
2762   A209 CD 2D A2    	CALL	BYTERD		;Get record address lo byte
2763   A20C 6F          	LD	L,A		;Put in L
2764   A20D             	
2765   A20D 3A 4B FF    	LD A,(HEXLDREG)		;CHECK IF HL RECORDED TO DISPLAY SOURCE ADRESS BEFORE?
2766   A210 FE 01       	CP 01                   ;IF NOT, RECORD IT. OTHERWISE GO ON
2767   A212 CA 1D A2    	JP Z,GO_ON
2768   A215 3E 01       	LD A,001H
2769   A217 32 4B FF    	LD (HEXLDREG),A
2770   A21A 22 50 FF    	LD (LOADSTADR),HL	; LOADED PROGRAM START ADRESS HEADER REGISTER
2771   A21D             	
2772   A21D CD 2D A2    GO_ON:	CALL	BYTERD		;Record type(NOT IGNORED IN EFEX MON)
2773   A220 FE 01       	CP 01                   ;IF END OF FILE THEN EXIT PROGRAM
2774   A222 C8          	RET Z          ;JP Z,LOAD_ED        PROGRAM ENDED RETURN TO HOME
2775   A223             	
2776   A223             	
2777   A223 CD 2D A2    DATAIN:	CALL	BYTERD		;Get record data byte
2778   A226 77          	LD	(HL),A		;Save byte to memory
2779   A227 23          	INC	HL		;Next address
2780   A228 10 F9       	DJNZ	DATAIN		;Decrement count and jump if not finished
2781   A22A 18 CB       	JR	INTLIN		;Ignore checksum byte and [CR][LF]
2782   A22C             	
2783   A22C C9          	RET		;PROGRAM ENDED RETURN HOME
2784   A22D             
2785   A22D 16 00       BYTERD:	LD	D,000h		;Set up   ;	* Get 2 ASCII chrs as hex byte	*
2786   A22F CD 37 A2    	CALL	HEXCON		;Get byte and convert to hex
2787   A232 87          	ADD	A,A		;First nibble so
2788   A233 87          	ADD	A,A		;multiply by 16
2789   A234 87          	ADD	A,A		;
2790   A235 87          	ADD	A,A		;
2791   A236 57          	LD	D,A		;Save hi nibble in D
2792   A237 CD 3E 80    HEXCON:	CALL	RXD		;Get next chr
2793   A23A D6 30       	SUB	030h		;Makes '0'-'9' equal 0-9
2794   A23C FE 0A       	CP	00Ah		;Is it 0-9 ?
2795   A23E 38 02       	JR	C,NALPHA	;If so miss next bit
2796   A240 D6 07       	SUB	007h		;Else convert alpha
2797   A242 B2          NALPHA:	OR	D		;Add hi nibble back
2798   A243 C9          	RET			;
2799   A244             
2800   A244             
2801   A244             
2802   A244             
2803   A244             ;,,,,,,,,,,,,,,,,,,,,,,,,,,,,,,,,
2804   A244             ;INTEL HEX SAVE PROGRAM         ;
2805   A244             ;,,,,,,,,,,,,,,,,,,,,,,,,,,,,,,,,
2806   A244             ;	LD HL,START ADRESS
2807   A244             ;	LD DE, END ADRESS
2808   A244             	
2809   A244             INTSAVE:
2810   A244 E5          	PUSH HL
2811   A245 EB          	EX DE,HL
2812   A246 ED 52       	SBC HL,DE
2813   A248 EB          	EX DE,HL
2814   A249 E1          	POP HL
2815   A24A 3E 00       	LD A,0
2816   A24C 32 34 FF    	LD (SAVECHCK),A	;RESET CHECKSUM COUNTER
2817   A24F 06 10       	LD B,10H
2818   A251             	
2819   A251 3E 0D       	LD A,0DH		;ENTER
2820   A253 CD 32 80    	CALL TXD ;TXD ROUTINE
2821   A256 3E 0A       	LD A,0AH
2822   A258 CD 32 80    	CALL TXD ;TXD ROUTINE
2823   A25B             	
2824   A25B 7A          COMP:	LD A,D	; DE TEK BAYTA INMIS
2825   A25C FE 00       	CP 0
2826   A25E CA 64 A2    	JP Z, MINUS
2827   A261 C3 71 A2    	JP DONGU
2828   A264             	
2829   A264 7B          MINUS:	LD A,E      ;E 10H TAN KUCUKSE..
2830   A265 D6 10       	SUB 10H
2831   A267 DA 6D A2    	JP C,MINIMUS
2832   A26A C3 71 A2    	JP DONGU
2833   A26D             	
2834   A26D 43          MINIMUS: LD B,E    ;DE 10H TAN AZ
2835   A26E C3 73 A2    	JP DONGU1 
2836   A271             	
2837   A271 06 10       DONGU:	LD B,10H
2838   A273 3E 3A       DONGU1:	LD A,':'
2839   A275 CD 32 80    	CALL TXD ;TXD ROUTINE		;SEND START CODE
2840   A278 78          	LD A,B
2841   A279 CD C2 A2    	CALL HEXOUT		;SEND BYTE COUNT (DEFAULT 16)
2842   A27C             	
2843   A27C 7C          	LD A,H 			;SEND RECORD ADRESS
2844   A27D CD C2 A2    	CALL HEXOUT
2845   A280 7D          	LD A,L
2846   A281 CD C2 A2    	CALL HEXOUT
2847   A284             	
2848   A284 3E 00       	LD A,0 			;SEND RECORD TYPE (0=DATA)
2849   A286 CD C2 A2    	CALL HEXOUT
2850   A289             	
2851   A289 CD AA A2    	CALL YAZ
2852   A28C 7A          	LD A,D		;DE BYTE COUNT REACHED?
2853   A28D B3          	OR E
2854   A28E C2 5B A2    	JP NZ, COMP
2855   A291             	
2856   A291 3E 3A       	LD A,':'		;ENDING COLON
2857   A293 CD 32 80    	CALL TXD ;TXD ROUTINE		
2858   A296 06 07       	LD B,07H
2859   A298 3E 30       DISEND:	LD A,'0'
2860   A29A CD 32 80    	CALL TXD ;TXD ROUTINE
2861   A29D 10 F9       	DJNZ DISEND
2862   A29F 3E 31       	LD A,'1'
2863   A2A1 CD 32 80    	CALL TXD ;TXD ROUTINE
2864   A2A4 3E FF       	LD A,0FFH
2865   A2A6 CD C2 A2    	CALL HEXOUT
2866   A2A9             	
2867   A2A9 C9          	RET      ;PROGRAM ENDED    CALL RE_START	RESET DISPLAYS
2868   A2AA             	         ;JP MA_IN	;TURN INTO ROM
2869   A2AA             
2870   A2AA             	
2871   A2AA             	
2872   A2AA             	
2873   A2AA             	
2874   A2AA 7E          YAZ:	LD A,(HL)
2875   A2AB CD C2 A2    	CALL HEXOUT
2876   A2AE 23          	INC HL
2877   A2AF 1B          	DEC DE
2878   A2B0 10 F8       	DJNZ YAZ		;16 BYTES SENDED
2879   A2B2 3E FF       	LD A, 0FFH		;SEND FAKE CHECKSUM
2880   A2B4 CD C2 A2    	CALL HEXOUT
2881   A2B7             	
2882   A2B7 3E 0D       	LD A,0DH		;ENTER
2883   A2B9 CD 32 80    	CALL TXD ;TXD ROUTINE
2884   A2BC 3E 0A       	LD A,0AH
2885   A2BE CD 32 80    	CALL TXD ;TXD ROUTINE
2886   A2C1 C9          	RET
2887   A2C2             		
2888   A2C2             ;----------------------HEXOUT--------------------------------------------
2889   A2C2             		
2890   A2C2             	
2891   A2C2             	
2892   A2C2             ;HEXOUT DO NOT CHANGES ANY REGISTER	
2893   A2C2 C5          HEXOUT:	PUSH BC ; THIS SUBROUTINE SENDS CONTENTS OF ACC TO TERMINAL AS 
2894   A2C3 D5          	PUSH DE ; TWO CHAR HEX VALUE (ASCII) 
2895   A2C4 E5          	PUSH HL
2896   A2C5 F5          	PUSH AF
2897   A2C6             	
2898   A2C6 E6 F0       	AND 0F0H
2899   A2C8 1F          	RRA
2900   A2C9 1F          	RRA
2901   A2CA 1F          	RRA
2902   A2CB 1F          	RRA
2903   A2CC 32 33 FF    	LD (HIGHNIBBLE),A  ;HIGH NIBBLE SYSTEM VARIABLE
2904   A2CF CD E1 A2    	CALL HEXAS
2905   A2D2             	
2906   A2D2 F1          	POP AF
2907   A2D3 F5          	PUSH AF
2908   A2D4 E6 0F       	AND 00FH
2909   A2D6 32 32 FF    	LD (LOWNIBBLE),A  ;LOW NIBBLE SYSTEM VARIABLE
2910   A2D9 CD E1 A2    	CALL HEXAS
2911   A2DC             	
2912   A2DC F1          	POP AF
2913   A2DD E1          	POP HL
2914   A2DE D1          	POP DE
2915   A2DF C1          	POP BC
2916   A2E0             	
2917   A2E0 C9          	RET
2918   A2E1             	
2919   A2E1 21 EE A2    HEXAS:	LD HL, TABLEX ; HEX NIBBLE TO ASCII CONVERTER
2920   A2E4 06 00       	LD  B, 0	;ADDING HL WITH A
2921   A2E6 4F          	LD  C, A
2922   A2E7 ED 4A       	ADC HL, BC
2923   A2E9 7E                 	LD A,(HL)
2924   A2EA CD 32 80    	CALL TXD ;TXD ROUTINE
2925   A2ED C9          	RET	
2926   A2EE 30 31 32 33 TABLEX:	.DB '0','1','2','3','4','5','6','7'
2926   A2F2 34 35 36 37 
2927   A2F6 38 39 41 42 	.DB '8','9','A','B','C','D','E','F'
2927   A2FA 43 44 45 46 
2928   A2FE             	
2929   A2FE             
2930   A2FE             ;HEXOUT DO NOT CHANGES ANY REGISTER	
2931   A2FE             
2932   A2FE             
2933   A2FE             
2934   A2FE             	
2935   A2FE             		
2936   A2FE             	.END
Number of errors = 0
